
NIOS_Project_Small.elf:     file format elf32-littlenios2
NIOS_Project_Small.elf
architecture: nios2:r1, flags 0x00000112:
EXEC_P, HAS_SYMS, D_PAGED
start address 0x00020020

Program Header:
    LOAD off    0x00001000 vaddr 0x00020000 paddr 0x00020000 align 2**12
         filesz 0x00000020 memsz 0x00000020 flags r-x
    LOAD off    0x00001020 vaddr 0x00020020 paddr 0x00020020 align 2**12
         filesz 0x00007fb4 memsz 0x00007fb4 flags r-x
    LOAD off    0x00008fd4 vaddr 0x00027fd4 paddr 0x00028434 align 2**12
         filesz 0x00000460 memsz 0x00000460 flags rw-
    LOAD off    0x00000894 vaddr 0x00028894 paddr 0x00028894 align 2**12
         filesz 0x00000000 memsz 0x00000488 flags rw-

Sections:
Idx Name          Size      VMA       LMA       File off  Algn
  0 .entry        00000020  00020000  00020000  00001000  2**5
                  CONTENTS, ALLOC, LOAD, READONLY, CODE
  1 .exceptions   00000000  00020020  00020020  00009434  2**0
                  CONTENTS
  2 .text         00007908  00020020  00020020  00001020  2**2
                  CONTENTS, ALLOC, LOAD, READONLY, CODE
  3 .rodata       000006ac  00027928  00027928  00008928  2**2
                  CONTENTS, ALLOC, LOAD, READONLY, DATA
  4 .rwdata       00000460  00027fd4  00028434  00008fd4  2**2
                  CONTENTS, ALLOC, LOAD, DATA, SMALL_DATA
  5 .bss          00000488  00028894  00028894  00009894  2**2
                  ALLOC, SMALL_DATA
  6 .RAM          00000000  00028d1c  00028d1c  00009434  2**0
                  CONTENTS
  7 .comment      0000002d  00000000  00000000  00009434  2**0
                  CONTENTS, READONLY
  8 .debug_aranges 00000568  00000000  00000000  00009468  2**3
                  CONTENTS, READONLY, DEBUGGING, OCTETS
  9 .debug_info   0000e4b4  00000000  00000000  000099d0  2**0
                  CONTENTS, READONLY, DEBUGGING, OCTETS
 10 .debug_abbrev 0000411f  00000000  00000000  00017e84  2**0
                  CONTENTS, READONLY, DEBUGGING, OCTETS
 11 .debug_line   00008358  00000000  00000000  0001bfa3  2**0
                  CONTENTS, READONLY, DEBUGGING, OCTETS
 12 .debug_frame  0000156c  00000000  00000000  000242fc  2**2
                  CONTENTS, READONLY, DEBUGGING, OCTETS
 13 .debug_str    00002a7d  00000000  00000000  00025868  2**0
                  CONTENTS, READONLY, DEBUGGING, OCTETS
 14 .debug_alt_sim_info 00000040  00000000  00000000  000282e8  2**2
                  CONTENTS, READONLY, DEBUGGING, OCTETS
 15 .debug_ranges 00000020  00000000  00000000  00028328  2**3
                  CONTENTS, READONLY, DEBUGGING, OCTETS
 16 .debug_rnglists 0000070f  00000000  00000000  00028348  2**0
                  CONTENTS, READONLY, DEBUGGING, OCTETS
 17 .debug_line_str 00000fb9  00000000  00000000  00028a57  2**0
                  CONTENTS, READONLY, DEBUGGING, OCTETS
 18 .debug_loclists 00005b6f  00000000  00000000  00029a10  2**0
                  CONTENTS, READONLY, DEBUGGING, OCTETS
 19 .thread_model 00000003  00000000  00000000  00033066  2**0
                  CONTENTS, READONLY
 20 .cpu          00000004  00000000  00000000  00033069  2**0
                  CONTENTS, READONLY
 21 .qsys         00000001  00000000  00000000  0003306d  2**0
                  CONTENTS, READONLY
 22 .simulation_enabled 00000001  00000000  00000000  0003306e  2**0
                  CONTENTS, READONLY
 23 .sysid_hash   00000004  00000000  00000000  0003306f  2**0
                  CONTENTS, READONLY
 24 .sysid_base   00000004  00000000  00000000  00033073  2**0
                  CONTENTS, READONLY
 25 .sysid_time   00000004  00000000  00000000  00033077  2**0
                  CONTENTS, READONLY
 26 .stderr_dev   00000005  00000000  00000000  0003307b  2**0
                  CONTENTS, READONLY
 27 .stdin_dev    00000005  00000000  00000000  00033080  2**0
                  CONTENTS, READONLY
 28 .stdout_dev   00000005  00000000  00000000  00033085  2**0
                  CONTENTS, READONLY
 29 .sopc_system_name 00000015  00000000  00000000  0003308a  2**0
                  CONTENTS, READONLY
 30 .quartus_project_dir 0000004c  00000000  00000000  0003309f  2**0
                  CONTENTS, READONLY
 31 .jdi          0000527d  00000000  00000000  000330eb  2**0
                  CONTENTS, READONLY
 32 .sopcinfo     0004b80c  00000000  00000000  00038368  2**0
                  CONTENTS, READONLY
SYMBOL TABLE:
00020000 l    d  .entry	00000000 .entry
00020020 l    d  .exceptions	00000000 .exceptions
00020020 l    d  .text	00000000 .text
00027928 l    d  .rodata	00000000 .rodata
00027fd4 l    d  .rwdata	00000000 .rwdata
00028894 l    d  .bss	00000000 .bss
00028d1c l    d  .RAM	00000000 .RAM
00000000 l    d  .comment	00000000 .comment
00000000 l    d  .debug_aranges	00000000 .debug_aranges
00000000 l    d  .debug_info	00000000 .debug_info
00000000 l    d  .debug_abbrev	00000000 .debug_abbrev
00000000 l    d  .debug_line	00000000 .debug_line
00000000 l    d  .debug_frame	00000000 .debug_frame
00000000 l    d  .debug_str	00000000 .debug_str
00000000 l    d  .debug_alt_sim_info	00000000 .debug_alt_sim_info
00000000 l    d  .debug_ranges	00000000 .debug_ranges
00000000 l    d  .debug_rnglists	00000000 .debug_rnglists
00000000 l    d  .debug_line_str	00000000 .debug_line_str
00000000 l    d  .debug_loclists	00000000 .debug_loclists
00000000 l    df *ABS*	00000000 crt0.o
00020058 l       .text	00000000 alt_after_alt_main
00000000 l    df *ABS*	00000000 hello_world_small.c
000283c4 l     O .rwdata	00000001 invert_me.0
00000000 l    df *ABS*	00000000 ViCAT_LSC.c
00000000 l    df *ABS*	00000000 ax58100_hw.c
00020358 l     F .text	00000144 HW_SPI_Read
0002049c l     F .text	00000118 HW_SPI_Write
00000000 l    df *ABS*	00000000 bootmode.c
00000000 l    df *ABS*	00000000 coeappl.c
00000000 l    df *ABS*	00000000 ecatappl.c
00000000 l    df *ABS*	00000000 ecatcoe.c
00000000 l    df *ABS*	00000000 ecatfoe.c
00000000 l    df *ABS*	00000000 ecatslv.c
00000000 l    df *ABS*	00000000 foeappl.c
00000000 l    df *ABS*	00000000 mailbox.c
00000000 l    df *ABS*	00000000 objdef.c
00000000 l    df *ABS*	00000000 sdoserv.c
00000000 l    df *ABS*	00000000 peripheral_linker.c
00000000 l    df *ABS*	00000000 lib2-divmod.c
00000000 l    df *ABS*	00000000 lib2-mul.c
00000000 l    df *ABS*	00000000 malloc.c
00000000 l    df *ABS*	00000000 mallocr.c
0002706c l     F .text	0000008c sbrk_aligned
00000000 l    df *ABS*	00000000 puts.c
00000000 l    df *ABS*	00000000 memcpy.c
00000000 l    df *ABS*	00000000 memset.c
00000000 l    df *ABS*	00000000 strlen.c
00000000 l    df *ABS*	00000000 impure.c
00000000 l    df *ABS*	00000000 sbrkr.c
00000000 l    df *ABS*	00000000 freer.c
00000000 l    df *ABS*	00000000 fvwrite_small_dev.c
00000000 l    df *ABS*	00000000 int_errno.c
00000000 l    df *ABS*	00000000 writer.c
00000000 l    df *ABS*	00000000 alt_load.c
00000000 l    df *ABS*	00000000 alt_main.c
00000000 l    df *ABS*	00000000 alt_malloc_lock.c
00000000 l    df *ABS*	00000000 alt_sbrk.c
00028428 l     O .rwdata	00000004 heap_end
00000000 l    df *ABS*	00000000 alt_usleep.c
00000000 l    df *ABS*	00000000 alt_write.c
00000000 l    df *ABS*	00000000 alt_sys_init.c
00000000 l    df *ABS*	00000000 altera_avalon_jtag_uart_write.c
00000000 l    df *ABS*	00000000 altera_avalon_spi.c
00000000 l    df *ABS*	00000000 alt_busy_sleep.c
00000000 l    df *ABS*	00000000 alt_dcache_flush_all.c
00000000 l    df *ABS*	00000000 alt_errno.c
00000000 l    df *ABS*	00000000 alt_icache_flush_all.c
00000000 l    df *ABS*	00000000 altera_nios2_gen2_irq.c
00028930 g     O .bss	00000001 b3BufferMode
00028928 g     O .bss	00000002 nEcatStateTrans
00028914 g     O .bss	00000002 u16IdValue
0002767c g     F .text	0000002c alt_main
000272c4 g     F .text	00000080 _puts_r
0002841a g     O .rwdata	00000006 sEntryDesc0x1000
00028434 g       *ABS*	00000000 __flash_rwdata_start
00020658 g     F .text	0000000c HW_EscReadIsr
00028d1c g       *ABS*	00000000 __alt_heap_start
00027fec g     O .rwdata	000001e0 GenObjDic
0002840e g     O .rwdata	00000006 sEntryDesc0x1008
00020748 g     F .text	00000004 BL_Start
00027c9c g     O .rodata	00000047 aName0x1018
00024b58 g     F .text	00000008 OBJ_GetObjDesc
00023c6c g     F .text	00000010 FOE_Error
0002892b g     O .bss	00000001 bApplEsmPending
00020740 g     F .text	00000004 HW_SYNC1_IRQHandler
000227bc g     F .text	0000005c StartOutputHandler
000202c4 g     F .text	0000004c APPL_OutputMapping
000276ac g     F .text	00000004 __malloc_unlock
000288ec g     O .bss	00000004 pCoeSendStored
00026cb4 g     F .text	000000b0 spi_transmit_receive
00024344 g     F .text	000000e0 MBX_MailboxWriteInd
0002899c g     O .bss	00000002 nSdoInfoIndex
00023724 g     F .text	000001e4 ECAT_StateChange
000289a8 g     O .bss	00000004 pStoreData
000288d0 g     O .bss	00000004 pAPPL_CoeReadInd
00028969 g     O .bss	00000001 u8MbxReadCounter
00021bf0 g     F .text	00000034 FOE_ContinueInd
000217dc g     F .text	00000068 COE_ContinueInd
0002891f g     O .bss	00000001 nAlStatus
00028924 g     O .bss	00000002 nPdOutputSize
00020738 g     F .text	00000004 HW_ALEVENT_IRQHandler
00028900 g     O .bss	00000004 u32FileOffset
00027920 g     F .text	00000008 altera_nios2_gen2_irq_init
000289d0 g     O .bss	0000000c spiRxBuf
00020000 g     F .entry	0000000c __reset
000288b0 g     O .bss	00000001 bInitFinished
00020020 g       *ABS*	00000000 __flash_exceptions_start
0002892e g     O .bss	00000002 u16LocalErrorCode
00028988 g     O .bss	00000004 nSdoSegBytesToHandle
00020324 g     F .text	00000034 main_initial
00021c24 g     F .text	0000004c ResetALEventMask
000289c0 g     O .bss	00000004 errno
00028894 g     O .bss	00000002 bootSwitchID
0002892c g     O .bss	00000001 u8LocalErrorState
000281e0 g     O .rwdata	0000000a acDevicename
00027e3c g     O .rodata	0000000c asEntryDesc0x7000
00028c50 g     O .bss	00000034 sMbxSendQueue
0002891e g     O .bss	00000001 bExplicitDevIdRequested
00028364 g     O .rwdata	0000000c sErrorSettings
000289c8 g     O .bss	00000004 alt_argv
00020084 g     F .text	00000004 APPL_AckErrorInd
000303c4 g       *ABS*	00000000 _gp
000276fc g     F .text	00000004 usleep
0002074c g     F .text	00000004 BL_Stop
000283f4 g     O .rwdata	00000006 sEntryDesc0x100A
00021854 g     F .text	0000039c FOE_ServiceInd
00022824 g     F .text	000000a0 StopInputHandler
00028c1c g     O .bss	00000034 sMbxReceiveQueue
00028954 g     O .bss	00000001 bNoMbxMemoryAvailable
0002413c g     F .text	000000c0 MBX_MailboxReadInd
000281cc g     O .rwdata	00000014 sIdentity
000288f8 g     O .bss	00000002 u16FileAccessState
0002893e g     O .bss	00000002 Sync0WdCounter
00027354 g     F .text	00000028 memcpy
00028904 g     O .bss	00000004 u32PacketNo
00024d1c g     F .text	0000010c CheckSyncTypeValue
000283d4 g     O .rwdata	00000004 sRxPDOassign
000288b8 g     O .bss	00000001 bMinCycleTimeMeasurementStarted
00027344 g     F .text	00000010 puts
00020728 g     F .text	0000000c HW_EscWriteIsr
00028976 g     O .bss	00000001 bSendMbxIsFull
000288c4 g     O .bss	00000004 u32CycleTimeStartValue
00027c34 g     O .rodata	00000013 aName0x10F8
00028934 g     O .bss	00000002 LatchInputSync0Counter
0002704c g     F .text	00000010 malloc
00028940 g     O .bss	00000002 i16WaitForPllRunningCnt
00026f64 g     F .text	00000064 .hidden __udivsi3
0002891a g     O .bss	00000002 nEscAddrOutputData
00028975 g     O .bss	00000001 bMbxRunning
00025cd8 g     F .text	000008f4 SDOS_SdoInd
000283c8 g     O .rwdata	00000004 OUT_GENERIC0x7000
000200b0 g     F .text	00000008 APPL_StopOutputHandler
00021de0 g     F .text	00000270 CheckSmSettings
00023b94 g     F .text	0000003c FOE_Read
00027a44 g     O .rodata	00000108 aName0x1C32
0002893c g     O .bss	00000002 Sync0WdValue
000273b8 g     F .text	00000048 _sbrk_r
0002491c g     F .text	0000003c OBJ_GetEntryDesc
00027fe0 g     O .rwdata	0000000c MLParameterSetting0x8000
00027d60 g     O .rodata	0000000c aName0x1000
00023c60 g     F .text	0000000c FOE_Busy
00020cfc g     F .text	00000068 GetSystemTimeDelay
000200a0 g     F .text	00000008 APPL_StopInputHandler
00028942 g     O .bss	00000002 i16WaitForPllRunningTimeout
00028990 g     O .bss	00000001 bSdoSegAccess
00028938 g     O .bss	00000002 Sync1WdValue
00022050 g     F .text	0000076c StartInputHandler
00020744 g     F .text	00000004 HW_TIMETASK_IRQHandler
00027e98 g     O .rodata	0000001b aName0x1C12
000283d0 g     O .rwdata	00000004 sTxPDOassign
00023dc0 g     F .text	000000dc MBX_StartMailboxHandler
00028d1c g       *ABS*	00000000 __bss_end
00028908 g     O .bss	00000001 EepromLoaded
00027e48 g     O .rodata	00000019 aName0x6000
00027f2c g     O .rodata	0000000c asEntryDesc0x1600
00028991 g     O .bss	00000001 bSdoSegFollows
00028980 g     O .bss	00000004 nSdoSegCompleteSize
00028913 g     O .bss	00000001 u8dummy
00028916 g     O .bss	00000002 u16ALEventMask
00027f58 g     O .rodata	00000078 cAbortCode
000289a4 g     O .bss	00000004 pSdoPendFunc
0002894a g     O .bss	00000001 bDcRunning
00024e28 g     F .text	00000610 OBJ_Read
000288e8 g     O .bss	00000001 bRunApplication
00027e20 g     O .rodata	0000001b aName0x7000
0002896e g     O .bss	00000002 u16EscAddrReceiveMbx
00028958 g     O .bss	00000004 psStoreMbx
00024558 g     F .text	000000c4 MBX_Main
0002890a g     O .bss	00000008 SyncManInfo
000283e8 g     O .rwdata	00000006 sSyncmanagertype
00028932 g     O .bss	00000001 b32BitDc
00021d84 g     F .text	0000005c EnableSyncManChannel
00027918 g     F .text	00000004 alt_dcache_flush_all
00027efc g     O .rodata	00000030 aName0x1600
00028434 g       *ABS*	00000000 __ram_rwdata_end
00020868 g     F .text	0000005c COE_UpdateSyncErrorStatus
000283e0 g     O .rwdata	00000008 OUT_GENERICProcessDataMapping0x1600
00027700 g     F .text	0000005c write
000288bc g     O .bss	00000004 u32SystemTimeReadFailure
00023e9c g     F .text	0000010c MBX_StopMailboxHandler
00027c48 g     O .rodata	0000003f aName0x10F1
000289b4 g     O .bss	00000001 u8PendingSdo
00027fd4 g       *ABS*	00000000 __ram_rodata_end
0002842c g     O .rwdata	00000004 DEBUG
00020754 g     F .text	00000008 BL_Data
000281ec g     O .rwdata	00000168 ApplicationObjDic
00020e14 g     F .text	0000006c HandleCycleTimeMeasurement
00028936 g     O .bss	00000002 LatchInputSync0Value
00026fc8 g     F .text	0000005c .hidden __umodsi3
000283d8 g     O .rwdata	00000008 IN_GENERICProcessDataMapping0x1A00
00027ce4 g     O .rodata	0000001e asEntryDesc0x1018
00028d1c g       *ABS*	00000000 end
00020098 g     F .text	00000008 APPL_StartInputHandler
00023be8 g     F .text	0000005c FOE_Data
00028972 g     O .bss	00000002 u16SendMbxSize
0002892a g     O .bss	00000001 bEcatWaitForAlControlRes
000266dc g     F .text	00000078 SDOS_ClearPendingResponse
00028960 g     O .bss	00000004 psReadMbx
00022818 g     F .text	0000000c StopOutputHandler
00027d24 g     O .rodata	0000001e aName0x1009
000288eb g     O .bss	00000001 bEcatWaitForInputUpdate
0002122c g     F .text	000001c0 PDI_Isr
00028c84 g     O .bss	00000044 sSyncManInPar
00034000 g       *ABS*	00000000 __alt_stack_pointer
00028408 g     O .rwdata	00000006 acHardwareversion
00026754 g     F .text	000003d8 SDOS_SdoInfoInd
00027780 g     F .text	00000030 altera_avalon_jtag_uart_write
000288b4 g     O .bss	00000004 u32MinCycleTimeValue
00028926 g     O .bss	00000002 nPdInputSize
00027400 g     F .text	00000100 _free_r
00027d50 g     O .rodata	0000000f aName0x1001
000283cc g     O .rwdata	00000004 IN_GENERIC0x6000
00020664 g     F .text	00000038 HW_EscWrite
00020090 g     F .text	00000008 APPL_StopMailboxHandler
00028354 g     O .rwdata	0000000d aSubindexDesc
00023d10 g     F .text	000000b0 MBX_Init
00020020 g     F .text	0000003c _start
00026d64 g     F .text	0000010c adc_init_spi_transmit_receive
00028993 g     O .bss	00000001 bSdoInWork
0002073c g     F .text	00000004 HW_SYNC0_IRQHandler
00028946 g     O .bss	00000002 u16SmSync0Value
000289b3 g     O .bss	00000001 bStoreCompleteAccess
000277b0 g     F .text	000000d8 alt_avalon_spi_command
00024764 g     F .text	00000080 OBJ_CopyNumberToString
00020860 g     F .text	00000008 COE_GetObjectDictionary
0002777c g     F .text	00000004 alt_sys_init
00024958 g     F .text	000000b8 OBJ_GetNoOfObjects
00028c0c g     O .bss	00000010 aPdOutputData
00028984 g     O .bss	00000001 bSdoSegLastToggle
00023ff0 g     F .text	0000014c MBX_CopyToSendMailbox
00022970 g     F .text	00000914 AL_ControlInd
00027024 g     F .text	00000028 .hidden __mulsi3
00027fd4 g       *ABS*	00000000 __ram_rwdata_start
00027928 g       *ABS*	00000000 __ram_rodata_start
00028992 g     O .bss	00000001 nSdoSegService
000283ee g     O .rwdata	00000006 sEntryDesc0x10F8
00020c6c g     F .text	00000090 ECAT_CheckTimer
000239ec g     F .text	000001a8 ECAT_Main
00028977 g     O .bss	00000001 bReceiveMbxIsLocked
000288dc g     O .bss	00000004 pAPPL_FoeError
0002896c g     O .bss	00000002 u16EscAddrSendMbx
00028920 g     O .bss	00000002 nMaxEscAddress
00028950 g     O .bss	00000001 bEcatFirstOutputsReceived
00027888 g     F .text	00000090 alt_busy_sleep
00028964 g     O .bss	00000004 psWriteMbx
000288a8 g     O .bss	00000008 u64Timestamp
00027c26 g     O .rodata	0000000c asEntryDesc0x1C00
00020088 g     F .text	00000008 APPL_StartMailboxHandler
0002896a g     O .bss	00000001 u8MbxWriteCounter
0002069c g     F .text	0000008c HW_Init
00028d1c g       *ABS*	00000000 __alt_stack_base
00027f38 g     O .rodata	00000020 cBitMask
00028912 g     O .bss	00000001 SMActivate
000288a4 g     O .bss	00000004 u32LastDc32Value
00023fa8 g     F .text	00000048 MailboxServiceInd
00023c7c g     F .text	00000050 PutInMbxQueue
000247e4 g     F .text	00000138 OBJ_GetDesc
000288a0 g     O .bss	00000004 u32CheckForDcOverrunCnt
000241fc g     F .text	00000068 MBX_MailboxRepeatReq
00028968 g     O .bss	00000001 u8MailboxSendReqStored
00021788 g     F .text	0000000c COE_Init
00020950 g     F .text	00000054 COE_RemoveDicEntry
00020d64 g     F .text	000000b0 PDO_InputMapping
000283fc g     O .rwdata	00000006 acSoftwareversion
0002889c g     O .bss	00000002 u16ErrorRegister
000276a8 g     F .text	00000004 __malloc_lock
000276b0 g     F .text	0000004c sbrk
000288cc g     O .bss	00000004 pAPPL_CoeWriteInd
000265cc g     F .text	00000110 SDOS_SdoRes
00028998 g     O .bss	00000004 pSdoInfoObjEntry
000214c0 g     F .text	00000218 ESC_EepromAccess
00027500 g     F .text	000000a8 __sfvwrite_small_dev
00028944 g     O .bss	00000001 bSmSyncSequenceValid
0002899e g     O .bss	00000002 nSdoInfoFragmentsLeft
00023284 g     F .text	00000308 AL_ControlRes
00028894 g       *ABS*	00000000 __bss_start
0002737c g     F .text	00000020 memset
00025438 g     F .text	00000740 OBJ_Write
0002005c g     F .text	00000028 main
00020000 g       *ABS*	00000000 __alt_mem_RAM
00026b2c g     F .text	00000020 delay_ms
00027eb4 g     O .rodata	0000000c asEntryDesc0x1C12
000289c4 g     O .bss	00000004 alt_envp
00028414 g     O .rwdata	00000006 sEntryDesc0x1001
000200b8 g     F .text	000001c0 APPL_GenerateMapping
000205b8 g     F .text	00000028 HW_GetALEventRegister_Isr
0002894c g     O .bss	00000002 EsmTimeoutCounter
00020ba0 g     F .text	000000cc COE_Main
00021844 g     F .text	00000010 FOE_Init
00034000 g       *ABS*	00000000 __alt_heap_limit
000288e0 g     O .bss	00000004 pAPPL_FoeReadData
000216d8 g     F .text	000000b0 ESC_EepromWriteCRC
000270f8 g     F .text	000001cc _malloc_r
000207c8 g     F .text	00000098 Read0x10F8
00028896 g     O .bss	00000002 EscALEvent
00028970 g     O .bss	00000002 u16ReceiveMbxSize
00028898 g     O .bss	00000004 ObjDicList
00028430 g     O .rwdata	00000004 alt_errno
00028402 g     O .rwdata	00000006 sEntryDesc0x1009
00028994 g     O .bss	00000004 pSdoResStored
00028953 g     O .bss	00000001 bBootMode
000289ac g     O .bss	00000004 u32StoreDataSize
00026e70 g     F .text	00000080 .hidden __divsi3
0002358c g     F .text	000000c0 DC_CheckWatchdog
000289a0 g     O .bss	00000004 pSdoSegData
00027928 g       *ABS*	00000000 __flash_rodata_start
00021d24 g     F .text	00000060 DisableSyncManChannel
0002894e g     O .bss	00000001 bDcSyncActive
00028952 g     O .bss	00000001 bEcatOutputUpdateRunning
0002775c g     F .text	00000020 alt_irq_init
000213ec g     F .text	000000d4 MainLoop
00024264 g     F .text	000000e0 MBX_MailboxSendReq
000288c8 g     O .bss	00000004 pAPPL_MainLoop
00020f94 g     F .text	000000fc MainInit
000208c4 g     F .text	0000008c COE_AddObjectToDic
000275a8 g     F .text	00000050 _write_r
00028cc8 g     O .bss	00000044 sSyncManOutPar
0002893a g     O .bss	00000002 Sync1WdCounter
00028424 g     O .rwdata	00000004 _impure_ptr
000289cc g     O .bss	00000004 alt_argc
00026b4c g     F .text	00000168 adc_init
00021cf4 g     F .text	00000030 GetSyncMan
00021794 g     F .text	00000048 COE_ServiceInd
00027c88 g     O .rodata	00000012 asEntryDesc0x10F1
00027e70 g     O .rodata	0000001b aName0x1C13
00027e8c g     O .rodata	0000000c asEntryDesc0x1C13
000228cc g     F .text	000000a4 SetALStatus
000210cc g     F .text	00000160 Sync0_Isr
0002891c g     O .bss	00000002 EcatWdValue
000288e9 g     O .bss	00000001 bEtherCATErrorLed
0002075c g     F .text	0000006c COE_SyncTimeStamp
00020020 g       *ABS*	00000000 __ram_exceptions_start
00023bd0 g     F .text	00000018 FOE_Write
00020618 g     F .text	00000040 HW_GetALEventRegister
000288c0 g     O .bss	00000004 u32MinCycleTimeStartValue
00027c14 g     O .rodata	00000012 aName0x1C00
00027e0e g     O .rodata	00000012 asEntryDesc0x8000
00028434 g       *ABS*	00000000 _edata
00021c70 g     F .text	0000004c SetALEventMask
0002897a g     O .bss	00000001 bSyncSetByUser
00028d1c g       *ABS*	00000000 _end
00028974 g     O .bss	00000001 bMbxRepeatToggle
00027d04 g     O .rodata	0000001e aName0x100A
00028951 g     O .bss	00000001 bEcatInputUpdateRunning
00021cbc g     F .text	00000038 UpdateEEPROMLoadedState
00020f40 g     F .text	00000054 Sync1_Isr
00020020 g       *ABS*	00000000 __ram_exceptions_end
00028931 g     O .bss	00000001 bEscIntEnabled
0002895c g     O .bss	00000004 psRepeatMbx
0002031c g     F .text	00000008 APPL_GetDeviceID
00027b4c g     O .rodata	000000c6 asEntryDesc0x1C3x
0002461c g     F .text	0000003c OBJ_GetObjectHandle
00027dc4 g     O .rodata	00000018 asEntryDesc0x8008
00027fd4 g     O .rwdata	0000000c ADCParameterSetting0x8008
0002898e g     O .bss	00000002 nSdoSegIndex
00028d0c g     O .bss	00000010 aSdoInfoHeader
00027ec0 g     O .rodata	0000002f aName0x1A00
000200a8 g     F .text	00000008 APPL_StartOutputHandler
0002897c g     O .bss	00000004 pSdoSegObjEntry
00027ef0 g     O .rodata	0000000c asEntryDesc0x1A00
00024b60 g     F .text	000001bc OBJ_GetEntryOffset
00020a30 g     F .text	00000040 COE_ObjDictionaryInit
00027ddc g     O .rodata	00000031 aName0x8000
00024424 g     F .text	00000134 MBX_CheckAndCopyMailbox
00020a70 g     F .text	00000130 COE_ObjInit
000289e8 g     O .bss	00000224 aPdInputData
000209a4 g     F .text	0000003c COE_ClearObjDictionary
0002894f g     O .bss	00000001 bWdTrigger
00026ef0 g     F .text	00000074 .hidden __modsi3
00020e80 g     F .text	000000c0 PDO_OutputMapping
0002898c g     O .bss	00000001 nSdoSegSubindex
00028370 g     O .rwdata	00000054 _impure_data
00034000 g       *ABS*	00000000 __alt_data_end
00025b78 g     F .text	00000160 SdoRes
000205e0 g     F .text	00000038 HW_EscRead
00020750 g     F .text	00000004 BL_StartDownload
000289b0 g     O .bss	00000002 u16StoreIndex
000288ea g     O .bss	00000001 bEtherCATRunLed
0002364c g     F .text	000000d8 CheckIfEcatError
00024a10 g     F .text	00000148 OBJ_GetObjectList
000288d4 g     O .bss	00000004 pAPPL_FoeWriteData
00027e62 g     O .rodata	0000000c asEntryDesc0x6000
0002000c g       .entry	00000000 _exit
00028948 g     O .bss	00000002 u16SmSync0Counter
000288f4 g     O .bss	00000004 pFoeSendStored
00028922 g     O .bss	00000001 nMaxSyncMan
00020734 g     F .text	00000004 HW_RestartTarget
0002739c g     F .text	0000001c strlen
00020278 g     F .text	0000004c APPL_InputMapping
00020310 g     F .text	0000000c APPL_Application
00028420 g     O .rwdata	00000004 u32Devicetype
000289b8 g     O .bss	00000004 __malloc_sbrk_start
000289b2 g     O .bss	00000001 u8StoreSubindex
0002793c g     O .rodata	00000107 aName0x1C33
000228c4 g     F .text	00000008 BackToInitTransition
000288fc g     O .bss	00000004 u32LastFileOffset
00024658 g     F .text	0000010c OBJ_GetObjectLength
00023ccc g     F .text	00000044 GetOutOfMbxQueue
0002791c g     F .text	00000004 alt_icache_flush_all
000289bc g     O .bss	00000004 __malloc_free_list
000288e4 g     O .bss	00000004 pAPPL_FoeRead
000209e0 g     F .text	00000050 AddObjectsToObjDictionary
000289dc g     O .bss	0000000c spiTxBuf
00028978 g     O .bss	00000002 sCycleDiag
00021090 g     F .text	0000003c ECAT_Application
00027d44 g     O .rodata	0000000c aName0x1008
000288d8 g     O .bss	00000004 pAPPL_FoeWrite
00027d6c g     O .rodata	00000057 aName0x8008
000288f0 g     O .bss	00000002 u16FoeMaxSendBlockSize
00023908 g     F .text	000000e4 ECAT_Init
000275f8 g     F .text	00000084 alt_load
00023c44 g     F .text	0000001c FOE_Ack
00028918 g     O .bss	00000002 nEscAddrInputData
0002705c g     F .text	00000010 free
000205b4 g     F .text	00000004 HW_Release



Disassembly of section .entry:

00020000 <__reset>:
 * Jump to the _start entry point in the .text section if reset code
 * is allowed or if optimizing for RTL simulation.
 */
#if defined(ALT_ALLOW_CODE_AT_RESET) || defined(ALT_SIM_OPTIMIZE)
    /* Jump to the _start entry point in the .text section. */
    movhi r1, %hi(_start)
   20000:	004000b4 	movhi	at,2
    ori r1, r1, %lo(_start)
   20004:	08400814 	ori	at,at,32
    jmp r1
   20008:	0800683a 	jmp	at

0002000c <_exit>:
	...

Disassembly of section .text:

00020020 <_start>:

    /*
     * Now that the caches are initialized, set up the stack pointer and global pointer.
     * The values provided by the linker are assumed to be correctly aligned.
     */
    movhi sp, %hi(__alt_stack_pointer)
   20020:	06c000f4 	movhi	sp,3
    ori sp, sp, %lo(__alt_stack_pointer)
   20024:	ded00014 	ori	sp,sp,16384
    movhi gp, %hi(_gp)
   20028:	068000f4 	movhi	gp,3
    ori gp, gp, %lo(_gp)
   2002c:	d680f114 	ori	gp,gp,964
 */
#ifndef ALT_SIM_OPTIMIZE
    /* Log that the BSS is about to be cleared. */
    ALT_LOG_PUTS(alt_log_msg_bss)

    movhi r2, %hi(__bss_start)
   20030:	008000b4 	movhi	r2,2
    ori r2, r2, %lo(__bss_start)
   20034:	10a22514 	ori	r2,r2,34964

    movhi r3, %hi(__bss_end)
   20038:	00c000b4 	movhi	r3,2
    ori r3, r3, %lo(__bss_end)
   2003c:	18e34714 	ori	r3,r3,36124

    beq r2, r3, 1f
   20040:	10c00326 	beq	r2,r3,20050 <_start+0x30>

0:
    stw zero, (r2)
   20044:	10000015 	stw	zero,0(r2)
    addi r2, r2, 4
   20048:	10800104 	addi	r2,r2,4
    bltu r2, r3, 0b
   2004c:	10fffd36 	bltu	r2,r3,20044 <_start+0x24>
     * section aren't defined until alt_load() has been called).
     */
    mov   et, zero
#endif

    call alt_load
   20050:	00275f80 	call	275f8 <alt_load>

    /* Log that alt_main is about to be called. */
    ALT_LOG_PUTS(alt_log_msg_alt_main)

    /* Call the C entry point. It should never return. */
    call alt_main
   20054:	002767c0 	call	2767c <alt_main>

00020058 <alt_after_alt_main>:

    /* Wait in infinite loop in case alt_main does return. */
alt_after_alt_main:
    br alt_after_alt_main
   20058:	003fff06 	br	20058 <alt_after_alt_main>

0002005c <main>:
#include "altera_avalon_pio_regs.h"
#include "peripheral/peripheral_linker.h"

int main()
{
  printf("Hello from Nios II!\n");
   2005c:	010000b4 	movhi	r4,2
{
   20060:	deffff04 	addi	sp,sp,-4
  printf("Hello from Nios II!\n");
   20064:	211e4a04 	addi	r4,r4,31016
{
   20068:	dfc00015 	stw	ra,0(sp)
  printf("Hello from Nios II!\n");
   2006c:	00273440 	call	27344 <puts>
  	  IOWR_ALTERA_AVALON_PIO_DATA(LED_BASE, invert_me);
  	  delay_ms(1000);
  	  invert_me = ~invert_me;
  }*/

  main_initial();
   20070:	00203240 	call	20324 <main_initial>

  return 0;
}
   20074:	0005883a 	mov	r2,zero
   20078:	dfc00017 	ldw	ra,0(sp)
   2007c:	dec00104 	addi	sp,sp,4
   20080:	f800283a 	ret

00020084 <APPL_AckErrorInd>:
*////////////////////////////////////////////////////////////////////////////////////////

void    APPL_AckErrorInd(UINT16 stateTrans)
{

}
   20084:	f800283a 	ret

00020088 <APPL_StartMailboxHandler>:
*////////////////////////////////////////////////////////////////////////////////////////

UINT16 APPL_StartMailboxHandler(void)
{
    return ALSTATUSCODE_NOERROR;
}
   20088:	0005883a 	mov	r2,zero
   2008c:	f800283a 	ret

00020090 <APPL_StopMailboxHandler>:
             about the state transition, the application cannot refuse
             the state transition.

*////////////////////////////////////////////////////////////////////////////////////////

UINT16 APPL_StopMailboxHandler(void)
   20090:	0005883a 	mov	r2,zero
   20094:	f800283a 	ret

00020098 <APPL_StartInputHandler>:
*////////////////////////////////////////////////////////////////////////////////////////

UINT16 APPL_StartInputHandler(UINT16 *pIntMask)
{
    return ALSTATUSCODE_NOERROR;
}
   20098:	0005883a 	mov	r2,zero
   2009c:	f800283a 	ret

000200a0 <APPL_StopInputHandler>:
             about the state transition, the application cannot refuse
             the state transition.

*////////////////////////////////////////////////////////////////////////////////////////

UINT16 APPL_StopInputHandler(void)
   200a0:	0005883a 	mov	r2,zero
   200a4:	f800283a 	ret

000200a8 <APPL_StartOutputHandler>:
           The return code NOERROR_INWORK can be used, if the application cannot confirm
           the state transition immediately, in that case the application need to be complete 
           the transition by calling ECAT_StateChange.
*////////////////////////////////////////////////////////////////////////////////////////

UINT16 APPL_StartOutputHandler(void)
   200a8:	0005883a 	mov	r2,zero
   200ac:	f800283a 	ret

000200b0 <APPL_StopOutputHandler>:
             about the state transition, the application cannot refuse
             the state transition.

*////////////////////////////////////////////////////////////////////////////////////////

UINT16 APPL_StopOutputHandler(void)
   200b0:	0005883a 	mov	r2,zero
   200b4:	f800283a 	ret

000200b8 <APPL_GenerateMapping>:

\brief    This function calculates the process data sizes from the actual SM-PDO-Assign
            and PDO mapping
*////////////////////////////////////////////////////////////////////////////////////////
UINT16 APPL_GenerateMapping(UINT16 *pInputSize,UINT16 *pOutputSize)
{
   200b8:	defff404 	addi	sp,sp,-48
   200bc:	dd800815 	stw	r22,32(sp)
   200c0:	dd400715 	stw	r21,28(sp)
   200c4:	dd000615 	stw	r20,24(sp)
   200c8:	dcc00515 	stw	r19,20(sp)
   200cc:	dc000215 	stw	r16,8(sp)
   200d0:	dfc00b15 	stw	ra,44(sp)
   200d4:	df000a15 	stw	fp,40(sp)
   200d8:	ddc00915 	stw	r23,36(sp)
   200dc:	dc800415 	stw	r18,16(sp)
   200e0:	dc400315 	stw	r17,12(sp)
   200e4:	2029883a 	mov	r20,r4
   200e8:	2827883a 	mov	r19,r5
    UINT32 *pPDOEntry = NULL;
    UINT16 PDOEntryCnt = 0;
   
#if MAX_PD_OUTPUT_SIZE > 0
    /*Scan object 0x1C12 RXPDO assign*/
    for(PDOAssignEntryCnt = 0; PDOAssignEntryCnt < sRxPDOassign.u16SubIndex0; PDOAssignEntryCnt++)
   200ec:	002d883a 	mov	r22,zero
    UINT16 OutputSize = 0;
   200f0:	0021883a 	mov	r16,zero
    for(PDOAssignEntryCnt = 0; PDOAssignEntryCnt < sRxPDOassign.u16SubIndex0; PDOAssignEntryCnt++)
   200f4:	d5600404 	addi	r21,gp,-32752
   200f8:	d0e0040b 	ldhu	r3,-32752(gp)
   200fc:	b0bfffcc 	andi	r2,r22,65535
   20100:	10c01a36 	bltu	r2,r3,2016c <APPL_GenerateMapping+0xb4>
    UINT16 result = ALSTATUSCODE_NOERROR;
   20104:	0023883a 	mov	r17,zero
            result = ALSTATUSCODE_INVALIDOUTPUTMAPPING;
            break;
        }
    }

    OutputSize = (OutputSize + 7) >> 3;
   20108:	84bfffcc 	andi	r18,r16,65535
   2010c:	948001c4 	addi	r18,r18,7
#endif

#if MAX_PD_INPUT_SIZE > 0
    if(result == 0)
   20110:	88bfffcc 	andi	r2,r17,65535
    OutputSize = (OutputSize + 7) >> 3;
   20114:	9025d0fa 	srai	r18,r18,3
    if(result == 0)
   20118:	10005026 	beq	r2,zero,2025c <APPL_GenerateMapping+0x1a4>
    UINT16 InputSize = 0;
   2011c:	0021883a 	mov	r16,zero
   20120:	04400944 	movi	r17,37
                result = ALSTATUSCODE_INVALIDINPUTMAPPING;
                break;
            }
        }
    }
    InputSize = (InputSize + 7) >> 3;
   20124:	843fffcc 	andi	r16,r16,65535
   20128:	840001c4 	addi	r16,r16,7
   2012c:	8021d0fa 	srai	r16,r16,3
#endif

    *pInputSize = InputSize;
    *pOutputSize = OutputSize;
    return result;
}
   20130:	8805883a 	mov	r2,r17
    InputSize = (InputSize + 7) >> 3;
   20134:	a400000d 	sth	r16,0(r20)
    *pOutputSize = OutputSize;
   20138:	9c80000d 	sth	r18,0(r19)
}
   2013c:	dfc00b17 	ldw	ra,44(sp)
   20140:	df000a17 	ldw	fp,40(sp)
   20144:	ddc00917 	ldw	r23,36(sp)
   20148:	dd800817 	ldw	r22,32(sp)
   2014c:	dd400717 	ldw	r21,28(sp)
   20150:	dd000617 	ldw	r20,24(sp)
   20154:	dcc00517 	ldw	r19,20(sp)
   20158:	dc800417 	ldw	r18,16(sp)
   2015c:	dc400317 	ldw	r17,12(sp)
   20160:	dc000217 	ldw	r16,8(sp)
   20164:	dec00c04 	addi	sp,sp,48
   20168:	f800283a 	ret
        pPDO = OBJ_GetObjectHandle(sRxPDOassign.aEntries[PDOAssignEntryCnt]);
   2016c:	1004907a 	slli	r2,r2,1
   20170:	a885883a 	add	r2,r21,r2
   20174:	1100008b 	ldhu	r4,2(r2)
   20178:	002461c0 	call	2461c <OBJ_GetObjectHandle>
   2017c:	1025883a 	mov	r18,r2
        if(pPDO != NULL)
   20180:	10001326 	beq	r2,zero,201d0 <APPL_GenerateMapping+0x118>
            PDOSubindex0 = *((UINT16 *)pPDO->pVarPtr);
   20184:	10800617 	ldw	r2,24(r2)
            for(PDOEntryCnt = 0; PDOEntryCnt < PDOSubindex0; PDOEntryCnt++)
   20188:	0007883a 	mov	r3,zero
   2018c:	1700000b 	ldhu	fp,0(r2)
   20190:	18bfffcc 	andi	r2,r3,65535
   20194:	1700021e 	bne	r2,fp,201a0 <APPL_GenerateMapping+0xe8>
    for(PDOAssignEntryCnt = 0; PDOAssignEntryCnt < sRxPDOassign.u16SubIndex0; PDOAssignEntryCnt++)
   20198:	b5800044 	addi	r22,r22,1
   2019c:	003fd606 	br	200f8 <APPL_GenerateMapping+0x40>
                pPDOEntry = (UINT32 *)(((UINT16 *)pPDO->pVarPtr) + (OBJ_GetEntryOffset((PDOEntryCnt+1),pPDO)>>4));    //goto PDO entry
   201a0:	1c400044 	addi	r17,r3,1
   201a4:	900b883a 	mov	r5,r18
   201a8:	89003fcc 	andi	r4,r17,255
   201ac:	95c00617 	ldw	r23,24(r18)
   201b0:	0024b600 	call	24b60 <OBJ_GetEntryOffset>
   201b4:	1004d0fa 	srli	r2,r2,3
            for(PDOEntryCnt = 0; PDOEntryCnt < PDOSubindex0; PDOEntryCnt++)
   201b8:	8807883a 	mov	r3,r17
                OutputSize += (UINT16) ((*pPDOEntry) & 0xFF);
   201bc:	1087ff8c 	andi	r2,r2,8190
   201c0:	b8af883a 	add	r23,r23,r2
   201c4:	b8800003 	ldbu	r2,0(r23)
   201c8:	1421883a 	add	r16,r2,r16
            for(PDOEntryCnt = 0; PDOEntryCnt < PDOSubindex0; PDOEntryCnt++)
   201cc:	003ff006 	br	20190 <APPL_GenerateMapping+0xd8>
            OutputSize = 0;
   201d0:	0021883a 	mov	r16,zero
            result = ALSTATUSCODE_INVALIDOUTPUTMAPPING;
   201d4:	04400944 	movi	r17,37
   201d8:	003fcb06 	br	20108 <APPL_GenerateMapping+0x50>
            pPDO = OBJ_GetObjectHandle(sTxPDOassign.aEntries[PDOAssignEntryCnt]);
   201dc:	1004907a 	slli	r2,r2,1
   201e0:	b885883a 	add	r2,r23,r2
   201e4:	1100008b 	ldhu	r4,2(r2)
   201e8:	002461c0 	call	2461c <OBJ_GetObjectHandle>
   201ec:	102d883a 	mov	r22,r2
            if(pPDO != NULL)
   201f0:	10001e26 	beq	r2,zero,2026c <APPL_GenerateMapping+0x1b4>
                PDOSubindex0 = *((UINT16 *)pPDO->pVarPtr);
   201f4:	10800617 	ldw	r2,24(r2)
                for(PDOEntryCnt = 0; PDOEntryCnt < PDOSubindex0; PDOEntryCnt++)
   201f8:	8807883a 	mov	r3,r17
   201fc:	11c0000b 	ldhu	r7,0(r2)
   20200:	18bfffcc 	andi	r2,r3,65535
   20204:	11c0051e 	bne	r2,r7,2021c <APPL_GenerateMapping+0x164>
        for(PDOAssignEntryCnt = 0; PDOAssignEntryCnt < sTxPDOassign.u16SubIndex0; PDOAssignEntryCnt++)
   20208:	e7000044 	addi	fp,fp,1
   2020c:	d0e0030b 	ldhu	r3,-32756(gp)
   20210:	e0bfffcc 	andi	r2,fp,65535
   20214:	10fff136 	bltu	r2,r3,201dc <APPL_GenerateMapping+0x124>
   20218:	003fc206 	br	20124 <APPL_GenerateMapping+0x6c>
                    pPDOEntry = (UINT32 *)(((UINT16 *)pPDO->pVarPtr) + (OBJ_GetEntryOffset((PDOEntryCnt+1),pPDO)>>4));    //goto PDO entry
   2021c:	b1800617 	ldw	r6,24(r22)
   20220:	1d400044 	addi	r21,r3,1
   20224:	b00b883a 	mov	r5,r22
   20228:	a9003fcc 	andi	r4,r21,255
   2022c:	d9c00115 	stw	r7,4(sp)
   20230:	d9800015 	stw	r6,0(sp)
   20234:	0024b600 	call	24b60 <OBJ_GetEntryOffset>
   20238:	1004d0fa 	srli	r2,r2,3
                    InputSize += (UINT16) ((*pPDOEntry) & 0xFF);
   2023c:	d9800017 	ldw	r6,0(sp)
                for(PDOEntryCnt = 0; PDOEntryCnt < PDOSubindex0; PDOEntryCnt++)
   20240:	d9c00117 	ldw	r7,4(sp)
                    InputSize += (UINT16) ((*pPDOEntry) & 0xFF);
   20244:	1087ff8c 	andi	r2,r2,8190
   20248:	308d883a 	add	r6,r6,r2
   2024c:	30800003 	ldbu	r2,0(r6)
                for(PDOEntryCnt = 0; PDOEntryCnt < PDOSubindex0; PDOEntryCnt++)
   20250:	a807883a 	mov	r3,r21
                    InputSize += (UINT16) ((*pPDOEntry) & 0xFF);
   20254:	1421883a 	add	r16,r2,r16
                for(PDOEntryCnt = 0; PDOEntryCnt < PDOSubindex0; PDOEntryCnt++)
   20258:	003fe906 	br	20200 <APPL_GenerateMapping+0x148>
        for(PDOAssignEntryCnt = 0; PDOAssignEntryCnt < sTxPDOassign.u16SubIndex0; PDOAssignEntryCnt++)
   2025c:	8839883a 	mov	fp,r17
    UINT16 InputSize = 0;
   20260:	8821883a 	mov	r16,r17
        for(PDOAssignEntryCnt = 0; PDOAssignEntryCnt < sTxPDOassign.u16SubIndex0; PDOAssignEntryCnt++)
   20264:	d5e00304 	addi	r23,gp,-32756
   20268:	003fe806 	br	2020c <APPL_GenerateMapping+0x154>
                InputSize = 0;
   2026c:	8821883a 	mov	r16,r17
                result = ALSTATUSCODE_INVALIDINPUTMAPPING;
   20270:	04400904 	movi	r17,36
   20274:	003fab06 	br	20124 <APPL_GenerateMapping+0x6c>

00020278 <APPL_InputMapping>:
            to the hardware
*////////////////////////////////////////////////////////////////////////////////////////
void APPL_InputMapping(UINT16* pData)
{
	UINT8 *pTmpData = (UINT8 *)pData;
	for (UINT8 j = 0; j < sTxPDOassign.u16SubIndex0; j++) {
   20278:	0007883a 	mov	r3,zero
   2027c:	d1a00304 	addi	r6,gp,-32756
   20280:	d160030b 	ldhu	r5,-32756(gp)
   20284:	18803fcc 	andi	r2,r3,255
   20288:	11400136 	bltu	r2,r5,20290 <APPL_InputMapping+0x18>
					   sizeof(IN_GENERIC0x6000.IN_GEN_INT1));
				pTmpData += sizeof(IN_GENERIC0x6000.IN_GEN_INT1);
				break;
		}
	}
}
   2028c:	f800283a 	ret
		switch (sTxPDOassign.aEntries[j]) {
   20290:	18803fcc 	andi	r2,r3,255
   20294:	1004907a 	slli	r2,r2,1
   20298:	3085883a 	add	r2,r6,r2
   2029c:	1080008b 	ldhu	r2,2(r2)
   202a0:	10868018 	cmpnei	r2,r2,6656
   202a4:	1000051e 	bne	r2,zero,202bc <APPL_InputMapping+0x44>
				memcpy(pTmpData, &IN_GENERIC0x6000.IN_GEN_INT1,
   202a8:	d0a00283 	ldbu	r2,-32758(gp)
				pTmpData += sizeof(IN_GENERIC0x6000.IN_GEN_INT1);
   202ac:	21000084 	addi	r4,r4,2
				memcpy(pTmpData, &IN_GENERIC0x6000.IN_GEN_INT1,
   202b0:	20bfff85 	stb	r2,-2(r4)
   202b4:	d0a002c3 	ldbu	r2,-32757(gp)
   202b8:	20bfffc5 	stb	r2,-1(r4)
	for (UINT8 j = 0; j < sTxPDOassign.u16SubIndex0; j++) {
   202bc:	18c00044 	addi	r3,r3,1
   202c0:	003fef06 	br	20280 <APPL_InputMapping+0x8>

000202c4 <APPL_OutputMapping>:
            to the hardware
*////////////////////////////////////////////////////////////////////////////////////////
void APPL_OutputMapping(UINT16* pData)
{
	UINT8 *pTmpData = (UINT8 *)pData;
	    for (UINT8 k = 0; k < sRxPDOassign.u16SubIndex0; k++) {
   202c4:	0007883a 	mov	r3,zero
   202c8:	d1a00404 	addi	r6,gp,-32752
   202cc:	d160040b 	ldhu	r5,-32752(gp)
   202d0:	18803fcc 	andi	r2,r3,255
   202d4:	11400136 	bltu	r2,r5,202dc <APPL_OutputMapping+0x18>
	                       sizeof(OUT_GENERIC0x7000.OUT_GEN_INT1));
	                pTmpData += sizeof(OUT_GENERIC0x7000.OUT_GEN_INT1);
	                break;
	        }
	    }
}
   202d8:	f800283a 	ret
	        switch (sRxPDOassign.aEntries[k]) {
   202dc:	18803fcc 	andi	r2,r3,255
   202e0:	1004907a 	slli	r2,r2,1
   202e4:	3085883a 	add	r2,r6,r2
   202e8:	1080008b 	ldhu	r2,2(r2)
   202ec:	10858018 	cmpnei	r2,r2,5632
   202f0:	1000051e 	bne	r2,zero,20308 <APPL_OutputMapping+0x44>
	                memcpy(&OUT_GENERIC0x7000.OUT_GEN_INT1, pTmpData,
   202f4:	20800003 	ldbu	r2,0(r4)
	                pTmpData += sizeof(OUT_GENERIC0x7000.OUT_GEN_INT1);
   202f8:	21000084 	addi	r4,r4,2
	                memcpy(&OUT_GENERIC0x7000.OUT_GEN_INT1, pTmpData,
   202fc:	d0a00185 	stb	r2,-32762(gp)
   20300:	20bfffc3 	ldbu	r2,-1(r4)
   20304:	d0a001c5 	stb	r2,-32761(gp)
	    for (UINT8 k = 0; k < sRxPDOassign.u16SubIndex0; k++) {
   20308:	18c00044 	addi	r3,r3,1
   2030c:	003fef06 	br	202cc <APPL_OutputMapping+0x8>

00020310 <APPL_Application>:
*////////////////////////////////////////////////////////////////////////////////////////
void APPL_Application(void)
{
	static int haha = 0;
	//IN_GENERIC0x6000.IN_GEN_INT1 = haha++;
	IN_GENERIC0x6000.IN_GEN_INT1 = OUT_GENERIC0x7000.OUT_GEN_INT1;
   20310:	d0a0018b 	ldhu	r2,-32762(gp)
   20314:	d0a0028d 	sth	r2,-32758(gp)
}
   20318:	f800283a 	ret

0002031c <APPL_GetDeviceID>:
*////////////////////////////////////////////////////////////////////////////////////////
UINT16 APPL_GetDeviceID()
{
    /* Explicit Device 5 is expected by Explicit Device ID conformance tests*/
    return 0x5;
}
   2031c:	00800144 	movi	r2,5
   20320:	f800283a 	ret

00020324 <main_initial>:
/**

 \brief    This is the main function

*////////////////////////////////////////////////////////////////////////////////////////
void main_initial(void) {
   20324:	deffff04 	addi	sp,sp,-4
   20328:	dfc00015 	stw	ra,0(sp)
    /* initialize the Hardware and the EtherCAT Slave Controller */
    HW_Init();
   2032c:	002069c0 	call	2069c <HW_Init>
    MainInit();
   20330:	0020f940 	call	20f94 <MainInit>

    bRunApplication = TRUE;
   20334:	00800044 	movi	r2,1
   20338:	d0a14905 	stb	r2,-31452(gp)
    do {
        MainLoop();
   2033c:	00213ec0 	call	213ec <MainLoop>
    } while (bRunApplication == TRUE);
   20340:	d0a14903 	ldbu	r2,-31452(gp)
   20344:	10800060 	cmpeqi	r2,r2,1
   20348:	103ffc1e 	bne	r2,zero,2033c <main_initial+0x18>

    HW_Release();
}
   2034c:	dfc00017 	ldw	ra,0(sp)
   20350:	dec00104 	addi	sp,sp,4
    HW_Release();
   20354:	00205b41 	jmpi	205b4 <HW_Release>

00020358 <HW_SPI_Read>:
 * @param pBuf
 * @param Addr
 * @param ByteLen
 */

static void HW_SPI_Read(uint8_t* pBuf, uint16_t Addr, uint16_t ByteLen) {
   20358:	defff504 	addi	sp,sp,-44
   2035c:	ddc00915 	stw	r23,36(sp)
   20360:	dd000615 	stw	r20,24(sp)

        /* Set dummy byte */
        spiTxBuf[DataOffset] = 0xff;

        /* Set read terminal byte */
        memset(&spiTxBuf[DataOffset + 1], 0, XferLen);
   20364:	05c000f4 	movhi	r23,3
        spiTxBuf[0] = ptr[1];
   20368:	050000f4 	movhi	r20,3
static void HW_SPI_Read(uint8_t* pBuf, uint16_t Addr, uint16_t ByteLen) {
   2036c:	dd400715 	stw	r21,28(sp)
   20370:	dc800415 	stw	r18,16(sp)
   20374:	dc400315 	stw	r17,12(sp)
   20378:	dc000215 	stw	r16,8(sp)
   2037c:	dfc00a15 	stw	ra,40(sp)
   20380:	dd800815 	stw	r22,32(sp)
   20384:	dcc00515 	stw	r19,20(sp)
   20388:	2023883a 	mov	r17,r4
   2038c:	2825883a 	mov	r18,r5
   20390:	3021883a 	mov	r16,r6
        spiTxBuf[0] = ptr[1];
   20394:	a5227704 	addi	r20,r20,-30244
        spiTxBuf[DataOffset] = 0xff;
   20398:	057fffc4 	movi	r21,-1
        memset(&spiTxBuf[DataOffset + 1], 0, XferLen);
   2039c:	bde277c4 	addi	r23,r23,-30241
    while (ByteLen) {
   203a0:	80bfffcc 	andi	r2,r16,65535
   203a4:	10000b1e 	bne	r2,zero,203d4 <HW_SPI_Read+0x7c>
        /* Next section */
        Addr += XferLen;
        pBuf += XferLen;
        ByteLen -= XferLen;
    }
}
   203a8:	dfc00a17 	ldw	ra,40(sp)
   203ac:	ddc00917 	ldw	r23,36(sp)
   203b0:	dd800817 	ldw	r22,32(sp)
   203b4:	dd400717 	ldw	r21,28(sp)
   203b8:	dd000617 	ldw	r20,24(sp)
   203bc:	dcc00517 	ldw	r19,20(sp)
   203c0:	dc800417 	ldw	r18,16(sp)
   203c4:	dc400317 	ldw	r17,12(sp)
   203c8:	dc000217 	ldw	r16,8(sp)
   203cc:	dec00b04 	addi	sp,sp,44
   203d0:	f800283a 	ret
        if (ByteLen > HW_SPI_MAX_DATA_FRAGMENT_SIZE) {
   203d4:	10800270 	cmpltui	r2,r2,9
   203d8:	802d883a 	mov	r22,r16
   203dc:	1000011e 	bne	r2,zero,203e4 <HW_SPI_Read+0x8c>
   203e0:	05800204 	movi	r22,8
        AddrTmp = AddrTmp << 3;
   203e4:	900490fa 	slli	r2,r18,3
        memset(&spiTxBuf[DataOffset + 1], 0, XferLen);
   203e8:	b4ffffcc 	andi	r19,r22,65535
        spiTxBuf[0] = ptr[1];
   203ec:	010000f4 	movhi	r4,3
   203f0:	10ffffcc 	andi	r3,r2,65535
   203f4:	1806d23a 	srli	r3,r3,8
        spiTxBuf[1] = ptr[0] | HW_SPI_READ_WITH_WAIT_CMD;
   203f8:	108000d4 	ori	r2,r2,3
        memset(&spiTxBuf[DataOffset + 1], 0, XferLen);
   203fc:	980d883a 	mov	r6,r19
        spiTxBuf[0] = ptr[1];
   20400:	20e27705 	stb	r3,-30244(r4)
        memset(&spiTxBuf[DataOffset + 1], 0, XferLen);
   20404:	000b883a 	mov	r5,zero
   20408:	b809883a 	mov	r4,r23
        spiTxBuf[1] = ptr[0] | HW_SPI_READ_WITH_WAIT_CMD;
   2040c:	a0800045 	stb	r2,1(r20)
        spiTxBuf[DataOffset] = 0xff;
   20410:	a5400085 	stb	r21,2(r20)
        memset(&spiTxBuf[DataOffset + 1], 0, XferLen);
   20414:	002737c0 	call	2737c <memset>
        spiTxBuf[DataOffset + XferLen] = 0xff;
   20418:	008000f4 	movhi	r2,3
   2041c:	9885883a 	add	r2,r19,r2
   20420:	15627785 	stb	r21,-30242(r2)
		IOWR_ALTERA_AVALON_PIO_DATA(ESC_SPI_CS_BASE, 0);
   20424:	00800134 	movhi	r2,4
   20428:	10041035 	stwio	zero,4160(r2)
													DataOffset + XferLen, 0);
   2042c:	988000c4 	addi	r2,r19,3
		uint8_t spi_check =  spi_transmit_receive(ESC_SPI_BASE, 0,
   20430:	01c000f4 	movhi	r7,3
   20434:	018000f4 	movhi	r6,3
   20438:	01000134 	movhi	r4,4
   2043c:	d8000115 	stw	zero,4(sp)
   20440:	d8800015 	stw	r2,0(sp)
   20444:	39e27404 	addi	r7,r7,-30256
   20448:	31a27704 	addi	r6,r6,-30244
   2044c:	000b883a 	mov	r5,zero
   20450:	21040004 	addi	r4,r4,4096
   20454:	0026cb40 	call	26cb4 <spi_transmit_receive>
IOWR_ALTERA_AVALON_PIO_DATA(ESC_SPI_CS_BASE, 1);
   20458:	00c00044 	movi	r3,1
   2045c:	00800134 	movhi	r2,4
   20460:	10c41035 	stwio	r3,4160(r2)
        for (i = 0; i < XferLen; i++) {
   20464:	008000f4 	movhi	r2,3
   20468:	10a27404 	addi	r2,r2,-30256
IOWR_ALTERA_AVALON_PIO_DATA(ESC_SPI_CS_BASE, 1);
   2046c:	0007883a 	mov	r3,zero
            pBuf[i] = spiRxBuf[DataOffset + i];
   20470:	114000c3 	ldbu	r5,3(r2)
   20474:	88c9883a 	add	r4,r17,r3
        for (i = 0; i < XferLen; i++) {
   20478:	18c00044 	addi	r3,r3,1
            pBuf[i] = spiRxBuf[DataOffset + i];
   2047c:	21400005 	stb	r5,0(r4)
        for (i = 0; i < XferLen; i++) {
   20480:	193fffcc 	andi	r4,r3,65535
   20484:	10800044 	addi	r2,r2,1
   20488:	24fff936 	bltu	r4,r19,20470 <HW_SPI_Read+0x118>
        Addr += XferLen;
   2048c:	b4a5883a 	add	r18,r22,r18
        pBuf += XferLen;
   20490:	8ce3883a 	add	r17,r17,r19
        ByteLen -= XferLen;
   20494:	85a1c83a 	sub	r16,r16,r22
   20498:	003fc106 	br	203a0 <HW_SPI_Read+0x48>

0002049c <HW_SPI_Write>:
 *
 * @param pData
 * @param Addr
 * @param ByteLen
 */
static void HW_SPI_Write(uint8_t* pData, uint16_t Addr, uint16_t ByteLen) {
   2049c:	defff604 	addi	sp,sp,-40
   204a0:	dd400715 	stw	r21,28(sp)
   204a4:	dd000615 	stw	r20,24(sp)
        spiTxBuf[1] = ptr[0] | HW_SPI_WRITE_CMD;
        DataOffset = 2;
#endif

        /* Set transmit data bytes */
        memcpy(&(spiTxBuf[DataOffset]), pData, XferLen);
   204a8:	054000f4 	movhi	r21,3
        spiTxBuf[0] = ptr[1];
   204ac:	050000f4 	movhi	r20,3
static void HW_SPI_Write(uint8_t* pData, uint16_t Addr, uint16_t ByteLen) {
   204b0:	dcc00515 	stw	r19,20(sp)
   204b4:	dc800415 	stw	r18,16(sp)
   204b8:	dc000215 	stw	r16,8(sp)
   204bc:	dfc00915 	stw	ra,36(sp)
   204c0:	dd800815 	stw	r22,32(sp)
   204c4:	dc400315 	stw	r17,12(sp)
   204c8:	2025883a 	mov	r18,r4
   204cc:	2827883a 	mov	r19,r5
   204d0:	3021883a 	mov	r16,r6
        spiTxBuf[0] = ptr[1];
   204d4:	a5227704 	addi	r20,r20,-30244
        memcpy(&(spiTxBuf[DataOffset]), pData, XferLen);
   204d8:	ad627784 	addi	r21,r21,-30242
    while (ByteLen) {
   204dc:	80bfffcc 	andi	r2,r16,65535
   204e0:	10000a1e 	bne	r2,zero,2050c <HW_SPI_Write+0x70>

        Addr += XferLen;
        pData += XferLen;
        ByteLen -= XferLen;
    }
}
   204e4:	dfc00917 	ldw	ra,36(sp)
   204e8:	dd800817 	ldw	r22,32(sp)
   204ec:	dd400717 	ldw	r21,28(sp)
   204f0:	dd000617 	ldw	r20,24(sp)
   204f4:	dcc00517 	ldw	r19,20(sp)
   204f8:	dc800417 	ldw	r18,16(sp)
   204fc:	dc400317 	ldw	r17,12(sp)
   20500:	dc000217 	ldw	r16,8(sp)
   20504:	dec00a04 	addi	sp,sp,40
   20508:	f800283a 	ret
        if (ByteLen > HW_SPI_MAX_DATA_FRAGMENT_SIZE) {
   2050c:	10c00268 	cmpgeui	r3,r2,9
   20510:	1800241e 	bne	r3,zero,205a4 <HW_SPI_Write+0x108>
            XferLen = ((ByteLen == 3) ? 2 : ByteLen);
   20514:	108000e0 	cmpeqi	r2,r2,3
   20518:	1000241e 	bne	r2,zero,205ac <HW_SPI_Write+0x110>
   2051c:	8023883a 	mov	r17,r16
        AddrTmp = AddrTmp << 3;
   20520:	980490fa 	slli	r2,r19,3
        spiTxBuf[0] = ptr[1];
   20524:	010000f4 	movhi	r4,3
        memcpy(&(spiTxBuf[DataOffset]), pData, XferLen);
   20528:	8dbfffcc 	andi	r22,r17,65535
        spiTxBuf[0] = ptr[1];
   2052c:	10ffffcc 	andi	r3,r2,65535
   20530:	1806d23a 	srli	r3,r3,8
        spiTxBuf[1] = ptr[0] | HW_SPI_WRITE_CMD;
   20534:	10800114 	ori	r2,r2,4
        memcpy(&(spiTxBuf[DataOffset]), pData, XferLen);
   20538:	b00d883a 	mov	r6,r22
        spiTxBuf[0] = ptr[1];
   2053c:	20e27705 	stb	r3,-30244(r4)
        memcpy(&(spiTxBuf[DataOffset]), pData, XferLen);
   20540:	900b883a 	mov	r5,r18
   20544:	a809883a 	mov	r4,r21
        spiTxBuf[1] = ptr[0] | HW_SPI_WRITE_CMD;
   20548:	a0800045 	stb	r2,1(r20)
        memcpy(&(spiTxBuf[DataOffset]), pData, XferLen);
   2054c:	00273540 	call	27354 <memcpy>
		IOWR_ALTERA_AVALON_PIO_DATA(ESC_SPI_CS_BASE, 0);
   20550:	00800134 	movhi	r2,4
   20554:	10041035 	stwio	zero,4160(r2)
		uint8_t spi_check =  spi_transmit_receive(ESC_SPI_BASE, 0,
   20558:	88800084 	addi	r2,r17,2
   2055c:	10bfffcc 	andi	r2,r2,65535
   20560:	01c000f4 	movhi	r7,3
   20564:	018000f4 	movhi	r6,3
   20568:	01000134 	movhi	r4,4
   2056c:	d8000115 	stw	zero,4(sp)
   20570:	d8800015 	stw	r2,0(sp)
   20574:	39e27404 	addi	r7,r7,-30256
   20578:	31a27704 	addi	r6,r6,-30244
   2057c:	000b883a 	mov	r5,zero
   20580:	21040004 	addi	r4,r4,4096
   20584:	0026cb40 	call	26cb4 <spi_transmit_receive>
		IOWR_ALTERA_AVALON_PIO_DATA(ESC_SPI_CS_BASE, 1);
   20588:	00c00044 	movi	r3,1
   2058c:	00800134 	movhi	r2,4
   20590:	10c41035 	stwio	r3,4160(r2)
        Addr += XferLen;
   20594:	9c67883a 	add	r19,r19,r17
        pData += XferLen;
   20598:	95a5883a 	add	r18,r18,r22
        ByteLen -= XferLen;
   2059c:	8461c83a 	sub	r16,r16,r17
   205a0:	003fce06 	br	204dc <HW_SPI_Write+0x40>
            XferLen = HW_SPI_MAX_DATA_FRAGMENT_SIZE;
   205a4:	04400204 	movi	r17,8
   205a8:	003fdd06 	br	20520 <HW_SPI_Write+0x84>
            XferLen = ((ByteLen == 3) ? 2 : ByteLen);
   205ac:	04400084 	movi	r17,2
   205b0:	003fdb06 	br	20520 <HW_SPI_Write+0x84>

000205b4 <HW_Release>:
 * @brief  This function shall be implemented if hardware resources need to be
 * release when the sample application stops.
 * @param  None
 * @retval None
 */
void HW_Release(void) {}
   205b4:	f800283a 	ret

000205b8 <HW_GetALEventRegister_Isr>:
 * interrupts service routines. The behaviour is equal to
 * "HW_GetALEventRegister()"
 * @param  None
 * @retval First two Bytes of ALEvent register (0x220)
 */
uint16_t HW_GetALEventRegister_Isr(void) {
   205b8:	deffff04 	addi	sp,sp,-4
 * access.
 * @param  Len         Access size in Bytes.
 * @retval None
 */
void HW_EscReadIsr(MEM_ADDR* pData, uint16_t Address, uint16_t Len) {
    HW_SPI_Read((uint8_t*)pData, Address, Len);
   205bc:	01800084 	movi	r6,2
   205c0:	01408804 	movi	r5,544
   205c4:	d1213484 	addi	r4,gp,-31534
uint16_t HW_GetALEventRegister_Isr(void) {
   205c8:	dfc00015 	stw	ra,0(sp)
    HW_SPI_Read((uint8_t*)pData, Address, Len);
   205cc:	00203580 	call	20358 <HW_SPI_Read>
}
   205d0:	d0a1348b 	ldhu	r2,-31534(gp)
   205d4:	dfc00017 	ldw	ra,0(sp)
   205d8:	dec00104 	addi	sp,sp,4
   205dc:	f800283a 	ret

000205e0 <HW_EscRead>:
void HW_EscRead(MEM_ADDR* pData, uint16_t Address, uint16_t Len) {
   205e0:	deffff04 	addi	sp,sp,-4
   205e4:	dfc00015 	stw	ra,0(sp)
static ALT_INLINE alt_irq_context ALT_ALWAYS_INLINE 
       alt_irq_disable_all (void)
{
  alt_irq_context context;

  NIOS2_READ_STATUS (context);
   205e8:	0005303a 	rdctl	r2,status

  NIOS2_WRITE_STATUS (context & ~NIOS2_STATUS_PIE_MSK);
   205ec:	00ffff84 	movi	r3,-2
   205f0:	10c4703a 	and	r2,r2,r3
   205f4:	1001703a 	wrctl	status,r2
    HW_SPI_Read((uint8_t*)pData, Address, Len);
   205f8:	31bfffcc 	andi	r6,r6,65535
   205fc:	297fffcc 	andi	r5,r5,65535
   20600:	00203580 	call	20358 <HW_SPI_Read>
  status &= ~NIOS2_STATUS_PIE_MSK;
  status |= (context & NIOS2_STATUS_PIE_MSK);
  
  NIOS2_WRITE_STATUS (status);
#else
  NIOS2_WRITE_STATUS (context);
   20604:	00800044 	movi	r2,1
   20608:	1001703a 	wrctl	status,r2
}
   2060c:	dfc00017 	ldw	ra,0(sp)
   20610:	dec00104 	addi	sp,sp,4
   20614:	f800283a 	ret

00020618 <HW_GetALEventRegister>:
uint16_t HW_GetALEventRegister(void) {
   20618:	deffff04 	addi	sp,sp,-4
   2061c:	dfc00015 	stw	ra,0(sp)
  NIOS2_READ_STATUS (context);
   20620:	0005303a 	rdctl	r2,status
  NIOS2_WRITE_STATUS (context & ~NIOS2_STATUS_PIE_MSK);
   20624:	00ffff84 	movi	r3,-2
   20628:	10c4703a 	and	r2,r2,r3
   2062c:	1001703a 	wrctl	status,r2
    HW_EscRead((MEM_ADDR*)EscALEvent.Byte, ESC_AL_EVENT_OFFSET, 2);
   20630:	01800084 	movi	r6,2
   20634:	01408804 	movi	r5,544
   20638:	d1213484 	addi	r4,gp,-31534
   2063c:	00205e00 	call	205e0 <HW_EscRead>
  NIOS2_WRITE_STATUS (context);
   20640:	00800044 	movi	r2,1
   20644:	1001703a 	wrctl	status,r2
}
   20648:	d0a1348b 	ldhu	r2,-31534(gp)
   2064c:	dfc00017 	ldw	ra,0(sp)
   20650:	dec00104 	addi	sp,sp,4
   20654:	f800283a 	ret

00020658 <HW_EscReadIsr>:
    HW_SPI_Read((uint8_t*)pData, Address, Len);
   20658:	31bfffcc 	andi	r6,r6,65535
   2065c:	297fffcc 	andi	r5,r5,65535
   20660:	00203581 	jmpi	20358 <HW_SPI_Read>

00020664 <HW_EscWrite>:
 * @param  Address     EtherCAT ASIC address ( upper limit is 0x1FFF ) for
 * access.
 * @param  Len         Access size in Bytes.
 * @retval None
 */
void HW_EscWrite(MEM_ADDR* pData, uint16_t Address, uint16_t Len) {
   20664:	deffff04 	addi	sp,sp,-4
   20668:	dfc00015 	stw	ra,0(sp)
  NIOS2_READ_STATUS (context);
   2066c:	0005303a 	rdctl	r2,status
  NIOS2_WRITE_STATUS (context & ~NIOS2_STATUS_PIE_MSK);
   20670:	00ffff84 	movi	r3,-2
   20674:	10c4703a 	and	r2,r2,r3
   20678:	1001703a 	wrctl	status,r2

#if AL_EVENT_ENABLED
    DISABLE_AL_EVENT_INT;
#endif
    HW_SPI_Write((uint8_t*)pData, Address, Len);
   2067c:	31bfffcc 	andi	r6,r6,65535
   20680:	297fffcc 	andi	r5,r5,65535
   20684:	002049c0 	call	2049c <HW_SPI_Write>
  NIOS2_WRITE_STATUS (context);
   20688:	00800044 	movi	r2,1
   2068c:	1001703a 	wrctl	status,r2
#if AL_EVENT_ENABLED
    ENABLE_AL_EVENT_INT;
#endif
}
   20690:	dfc00017 	ldw	ra,0(sp)
   20694:	dec00104 	addi	sp,sp,4
   20698:	f800283a 	ret

0002069c <HW_Init>:
uint8_t HW_Init(void) {
   2069c:	defffd04 	addi	sp,sp,-12
   206a0:	dc000115 	stw	r16,4(sp)
   206a4:	dfc00215 	stw	ra,8(sp)
        intMask = 0x93;
   206a8:	040024c4 	movi	r16,147
        HW_EscWriteDWord(intMask, ESC_AL_EVENTMASK_OFFSET);
   206ac:	01800104 	movi	r6,4
   206b0:	01408104 	movi	r5,516
   206b4:	d809883a 	mov	r4,sp
        intMask = 0x93;
   206b8:	dc000015 	stw	r16,0(sp)
        HW_EscWriteDWord(intMask, ESC_AL_EVENTMASK_OFFSET);
   206bc:	00206640 	call	20664 <HW_EscWrite>
        HW_EscReadDWord(intMask, ESC_AL_EVENTMASK_OFFSET);
   206c0:	01800104 	movi	r6,4
   206c4:	01408104 	movi	r5,516
   206c8:	d809883a 	mov	r4,sp
        intMask = 0;
   206cc:	d8000015 	stw	zero,0(sp)
        HW_EscReadDWord(intMask, ESC_AL_EVENTMASK_OFFSET);
   206d0:	00205e00 	call	205e0 <HW_EscRead>
    } while (intMask != 0x93);
   206d4:	d8800017 	ldw	r2,0(sp)
   206d8:	108024d8 	cmpnei	r2,r2,147
   206dc:	103ff31e 	bne	r2,zero,206ac <HW_Init+0x10>
    HW_EscWriteDWord(intMask, ESC_AL_EVENTMASK_OFFSET);
   206e0:	01800104 	movi	r6,4
   206e4:	01408104 	movi	r5,516
   206e8:	d809883a 	mov	r4,sp
    intMask = 0x00;
   206ec:	d8000015 	stw	zero,0(sp)
    HW_EscWriteDWord(intMask, ESC_AL_EVENTMASK_OFFSET);
   206f0:	00206640 	call	20664 <HW_EscWrite>
   206f4:	00800044 	movi	r2,1
   206f8:	1001703a 	wrctl	status,r2
    if (bootSwitchID) {
   206fc:	d0a1340b 	ldhu	r2,-31536(gp)
   20700:	10000426 	beq	r2,zero,20714 <HW_Init+0x78>
        HW_EscWriteWord(bootSwitchID, ESC_ALIAS_ADDRESS_OFFSET);
   20704:	01800084 	movi	r6,2
   20708:	01400484 	movi	r5,18
   2070c:	d1213404 	addi	r4,gp,-31536
   20710:	00206640 	call	20664 <HW_EscWrite>
}
   20714:	0005883a 	mov	r2,zero
   20718:	dfc00217 	ldw	ra,8(sp)
   2071c:	dc000117 	ldw	r16,4(sp)
   20720:	dec00304 	addi	sp,sp,12
   20724:	f800283a 	ret

00020728 <HW_EscWriteIsr>:
 * access.
 * @param  Len         Access size in Bytes.
 * @retval None
 */
void HW_EscWriteIsr(MEM_ADDR* pData, uint16_t Address, uint16_t Len) {
    HW_SPI_Write((uint8_t*)pData, Address, Len);
   20728:	31bfffcc 	andi	r6,r6,65535
   2072c:	297fffcc 	andi	r5,r5,65535
   20730:	002049c1 	jmpi	2049c <HW_SPI_Write>

00020734 <HW_RestartTarget>:
/**
 * @brief  This function resets the hardware
 * @param  None
 * @retval None
 */
void HW_RestartTarget(void) {}
   20734:	f800283a 	ret

00020738 <HW_ALEVENT_IRQHandler>:
 * @retval None
 */
void HW_ALEVENT_IRQHandler(void) {
    //if (__HAL_GPIO_EXTI_GET_FLAG(HW_SPI_ESC_INT_PIN)) {
        //__HAL_GPIO_EXTI_CLEAR_FLAG(HW_SPI_ESC_INT_PIN);
        PDI_Isr();
   20738:	002122c1 	jmpi	2122c <PDI_Isr>

0002073c <HW_SYNC0_IRQHandler>:
 */
void HW_SYNC0_IRQHandler(void) {
#if DC_SUPPORTED
    //if (__HAL_GPIO_EXTI_GET_FLAG(HW_SYNC0_PIN)) {
        //__HAL_GPIO_EXTI_CLEAR_FLAG(HW_SYNC0_PIN);
        Sync0_Isr();
   2073c:	00210cc1 	jmpi	210cc <Sync0_Isr>

00020740 <HW_SYNC1_IRQHandler>:

void HW_SYNC1_IRQHandler(void) {
#if DC_SUPPORTED
    //if (__HAL_GPIO_EXTI_GET_FLAG(HW_SYNC1_PIN)) {
        //__HAL_GPIO_EXTI_CLEAR_FLAG(HW_SYNC1_PIN);
        Sync1_Isr();
   20740:	0020f401 	jmpi	20f40 <Sync1_Isr>

00020744 <HW_TIMETASK_IRQHandler>:
	if ((__HAL_TIM_GET_IT_SOURCE(&HW_TIMETASK_INSTANCE_H, TIM_IT_UPDATE) ==
		 SET) &&
		(__HAL_TIM_GET_FLAG(&HW_TIMETASK_INSTANCE_H, TIM_FLAG_UPDATE) != 0)) {
		__HAL_TIM_CLEAR_FLAG(&HW_TIMETASK_INSTANCE_H, TIM_FLAG_UPDATE);
		*/
		ECAT_CheckTimer();
   20744:	0020c6c1 	jmpi	20c6c <ECAT_CheckTimer>

00020748 <BL_Start>:

 \brief Called from INIT to BOOT
*////////////////////////////////////////////////////////////////////////////////////////
void BL_Start( UINT8 State)
{
}
   20748:	f800283a 	ret

0002074c <BL_Stop>:

\brief Called in the state transition from BOOT to Init
*////////////////////////////////////////////////////////////////////////////////////////
void BL_Stop(void)
{
}
   2074c:	f800283a 	ret

00020750 <BL_StartDownload>:

 \brief Dummy BL_StartDownload function
*////////////////////////////////////////////////////////////////////////////////////////
void BL_StartDownload(UINT32 password)
{
}
   20750:	f800283a 	ret

00020754 <BL_Data>:
 \brief Dummy BL_Data function
*////////////////////////////////////////////////////////////////////////////////////////
UINT16 BL_Data(UINT16 *pData,UINT16 Size)
{
    return 0;
}
   20754:	0005883a 	mov	r2,zero
   20758:	f800283a 	ret

0002075c <COE_SyncTimeStamp>:
          Called from the Timer handler 
*////////////////////////////////////////////////////////////////////////////////////////
void COE_SyncTimeStamp(void)
{

    if (b32BitDc)
   2075c:	d0a15b83 	ldbu	r2,-31378(gp)
{
   20760:	defffe04 	addi	sp,sp,-8
   20764:	dfc00115 	stw	ra,4(sp)
    if (b32BitDc)
   20768:	10001226 	beq	r2,zero,207b4 <COE_SyncTimeStamp+0x58>
    {
        UINT32 DcTime = (UINT32)(u64Timestamp & (UINT64)0x00000000FFFFFFFF);
   2076c:	d0a13917 	ldw	r2,-31516(gp)


        HW_EscReadDWord(DcTime, ESC_SYSTEMTIME_OFFSET);
   20770:	d809883a 	mov	r4,sp
   20774:	01800104 	movi	r6,4
   20778:	01424404 	movi	r5,2320
        UINT32 DcTime = (UINT32)(u64Timestamp & (UINT64)0x00000000FFFFFFFF);
   2077c:	d8800015 	stw	r2,0(sp)
        HW_EscReadDWord(DcTime, ESC_SYSTEMTIME_OFFSET);
   20780:	00205e00 	call	205e0 <HW_EscRead>

        /*update the lower 32Bit*/
        u64Timestamp = ((u64Timestamp & ((UINT64)0xFFFFFFFF00000000)) | (UINT64)DcTime);
   20784:	d8800017 	ldw	r2,0(sp)

        if (DcTime < u32LastDc32Value)
   20788:	d1213817 	ldw	r4,-31520(gp)
        u64Timestamp = ((u64Timestamp & ((UINT64)0xFFFFFFFF00000000)) | (UINT64)DcTime);
   2078c:	d0e13a17 	ldw	r3,-31512(gp)
   20790:	d0a13915 	stw	r2,-31516(gp)
        if (DcTime < u32LastDc32Value)
   20794:	1100022e 	bgeu	r2,r4,207a0 <COE_SyncTimeStamp+0x44>
        {
            /*32Bit overrun*/
            u64Timestamp = u64Timestamp + ((UINT64)0x0000000100000000);
   20798:	18c00044 	addi	r3,r3,1
   2079c:	d0e13a15 	stw	r3,-31512(gp)
        }
        
        u32LastDc32Value = DcTime;
   207a0:	d0a13815 	stw	r2,-31520(gp)
        /*The DC unit supports 64Bit => update the complete object*/
        
        HW_EscRead((MEM_ADDR *)&u64Timestamp, ESC_SYSTEMTIME_OFFSET, 8);
    }

    u32CheckForDcOverrunCnt = 0;
   207a4:	d0213715 	stw	zero,-31524(gp)

}
   207a8:	dfc00117 	ldw	ra,4(sp)
   207ac:	dec00204 	addi	sp,sp,8
   207b0:	f800283a 	ret
        HW_EscRead((MEM_ADDR *)&u64Timestamp, ESC_SYSTEMTIME_OFFSET, 8);
   207b4:	01800204 	movi	r6,8
   207b8:	01424404 	movi	r5,2320
   207bc:	d1213904 	addi	r4,gp,-31516
   207c0:	00205e00 	call	205e0 <HW_EscRead>
   207c4:	003ff706 	br	207a4 <COE_SyncTimeStamp+0x48>

000207c8 <Read0x10F8>:
{
   207c8:	defffc04 	addi	sp,sp,-16
    if (index != 0x10F8)
   207cc:	20bfffcc 	andi	r2,r4,65535
{
   207d0:	dfc00315 	stw	ra,12(sp)
   207d4:	dc800215 	stw	r18,8(sp)
   207d8:	dc400115 	stw	r17,4(sp)
   207dc:	dc000015 	stw	r16,0(sp)
    if (index != 0x10F8)
   207e0:	10843e18 	cmpnei	r2,r2,4344
{
   207e4:	d8c00403 	ldbu	r3,16(sp)
    if (index != 0x10F8)
   207e8:	1000151e 	bne	r2,zero,20840 <Read0x10F8+0x78>
    if (bCompleteAccess)
   207ec:	18c03fcc 	andi	r3,r3,255
   207f0:	1800151e 	bne	r3,zero,20848 <Read0x10F8+0x80>
   207f4:	2821883a 	mov	r16,r5
    if (subindex > 0)
   207f8:	29403fcc 	andi	r5,r5,255
   207fc:	2800141e 	bne	r5,zero,20850 <Read0x10F8+0x88>
    if (dataSize > 8)
   20800:	30800268 	cmpgeui	r2,r6,9
   20804:	3023883a 	mov	r17,r6
   20808:	1000131e 	bne	r2,zero,20858 <Read0x10F8+0x90>
   2080c:	3825883a 	mov	r18,r7
    COE_SyncTimeStamp();
   20810:	002075c0 	call	2075c <COE_SyncTimeStamp>
    MEMCPY(pData, &u64Timestamp, dataSize);
   20814:	880d883a 	mov	r6,r17
   20818:	d1613904 	addi	r5,gp,-31516
   2081c:	9009883a 	mov	r4,r18
   20820:	00273540 	call	27354 <memcpy>
}
   20824:	8005883a 	mov	r2,r16
   20828:	dfc00317 	ldw	ra,12(sp)
   2082c:	dc800217 	ldw	r18,8(sp)
   20830:	dc400117 	ldw	r17,4(sp)
   20834:	dc000017 	ldw	r16,0(sp)
   20838:	dec00404 	addi	sp,sp,16
   2083c:	f800283a 	ret
        return ABORTIDX_PARAM_IS_INCOMPATIBLE;
   20840:	040002c4 	movi	r16,11
   20844:	003ff706 	br	20824 <Read0x10F8+0x5c>
        return ABORTIDX_UNSUPPORTED_ACCESS;
   20848:	04000144 	movi	r16,5
   2084c:	003ff506 	br	20824 <Read0x10F8+0x5c>
        return ABORTIDX_SUBINDEX_NOT_EXISTING;
   20850:	04000444 	movi	r16,17
   20854:	003ff306 	br	20824 <Read0x10F8+0x5c>
        return ABORTIDX_PARAM_LENGTH_TOO_LONG;
   20858:	040003c4 	movi	r16,15
   2085c:	003ff106 	br	20824 <Read0x10F8+0x5c>

00020860 <COE_GetObjectDictionary>:
 \brief    returns the pointer to the object dictionary
*////////////////////////////////////////////////////////////////////////////////////////
OBJCONST TOBJECT OBJMEM * COE_GetObjectDictionary(void)
{
    return (OBJCONST TOBJECT OBJMEM *) ObjDicList;
}
   20860:	d0a13517 	ldw	r2,-31532(gp)
   20864:	f800283a 	ret

00020868 <COE_UpdateSyncErrorStatus>:
/**
\brief     Update the Sync Error Indication
*////////////////////////////////////////////////////////////////////////////////////////
void COE_UpdateSyncErrorStatus(void)
{
    if (sSyncManOutPar.u16CycleExceededCounter > 0 || sSyncManOutPar.u16SmEventMissedCounter > sErrorSettings.u16SyncErrorCounterLimit)
   20868:	00c000f4 	movhi	r3,3
   2086c:	18e33204 	addi	r3,r3,-29496
   20870:	18800a8b 	ldhu	r2,42(r3)
   20874:	10000f1e 	bne	r2,zero,208b4 <COE_UpdateSyncErrorStatus+0x4c>
   20878:	008000f4 	movhi	r2,3
   2087c:	19000a0b 	ldhu	r4,40(r3)
   20880:	10a0db0b 	ldhu	r2,-31892(r2)
   20884:	1105803a 	cmpltu	r2,r2,r4
    {
        sSyncManOutPar.u8SyncError = 1;
   20888:	18801005 	stb	r2,64(r3)
    {
        sSyncManOutPar.u8SyncError = 0;
    }


    if (sSyncManInPar.u16CycleExceededCounter > 0 || sSyncManInPar.u16SmEventMissedCounter > sErrorSettings.u16SyncErrorCounterLimit)
   2088c:	00c000f4 	movhi	r3,3
   20890:	18e32104 	addi	r3,r3,-29564
   20894:	18800a8b 	ldhu	r2,42(r3)
   20898:	1000081e 	bne	r2,zero,208bc <COE_UpdateSyncErrorStatus+0x54>
   2089c:	008000f4 	movhi	r2,3
   208a0:	19000a0b 	ldhu	r4,40(r3)
   208a4:	10a0db0b 	ldhu	r2,-31892(r2)
   208a8:	1105803a 	cmpltu	r2,r2,r4
    {
        sSyncManInPar.u8SyncError = 1;
   208ac:	18801005 	stb	r2,64(r3)
    else
    {
        sSyncManInPar.u8SyncError = 0;
    }

}
   208b0:	f800283a 	ret
   208b4:	00800044 	movi	r2,1
   208b8:	003ff306 	br	20888 <COE_UpdateSyncErrorStatus+0x20>
   208bc:	00800044 	movi	r2,1
   208c0:	003ffa06 	br	208ac <COE_UpdateSyncErrorStatus+0x44>

000208c4 <COE_AddObjectToDic>:

 \brief    This function adds an object to the object dictionary
 *////////////////////////////////////////////////////////////////////////////////////////
UINT16 COE_AddObjectToDic(TOBJECT OBJMEM * pNewObjEntry)
{
    if(pNewObjEntry != NULL)
   208c4:	20002026 	beq	r4,zero,20948 <COE_AddObjectToDic+0x84>
    {
        if(ObjDicList == NULL)
   208c8:	d0a13517 	ldw	r2,-31532(gp)
   208cc:	1000051e 	bne	r2,zero,208e4 <COE_AddObjectToDic+0x20>
        {
            /* Object dictionary is empty */
            ObjDicList = pNewObjEntry;
   208d0:	d1213515 	stw	r4,-31532(gp)
            ObjDicList->pNext = NULL;
   208d4:	20000115 	stw	zero,4(r4)
            ObjDicList->pPrev = NULL;
   208d8:	20000015 	stw	zero,0(r4)
            return 0;
   208dc:	0005883a 	mov	r2,zero
   208e0:	f800283a 	ret
        }
        else if(ObjDicList->Index > pNewObjEntry->Index)
   208e4:	1140020b 	ldhu	r5,8(r2)
   208e8:	20c0020b 	ldhu	r3,8(r4)
   208ec:	1940142e 	bgeu	r3,r5,20940 <COE_AddObjectToDic+0x7c>
        {
            /*insert new object dictionary head*/
            pNewObjEntry->pPrev = NULL;
   208f0:	20000015 	stw	zero,0(r4)
            pNewObjEntry->pNext = ObjDicList;
   208f4:	20800115 	stw	r2,4(r4)
            ObjDicList->pPrev = pNewObjEntry;
   208f8:	11000015 	stw	r4,0(r2)
            ObjDicList = pNewObjEntry;
   208fc:	d1213515 	stw	r4,-31532(gp)
            return 0;
   20900:	003ff606 	br	208dc <COE_AddObjectToDic+0x18>
                if(pDicEntry->Index == pNewObjEntry->Index)
                {
                    /*object already exists in object dictionary*/
                    return ALSTATUSCODE_UNSPECIFIEDERROR;
                }
                else if(pDicEntry->Index > pNewObjEntry->Index)
   20904:	1940072e 	bgeu	r3,r5,20924 <COE_AddObjectToDic+0x60>
                {
                    pNewObjEntry->pPrev = pDicEntry->pPrev;
   20908:	10c00017 	ldw	r3,0(r2)
                    pNewObjEntry->pNext = pDicEntry;
   2090c:	20800115 	stw	r2,4(r4)
                    pNewObjEntry->pPrev = pDicEntry->pPrev;
   20910:	20c00015 	stw	r3,0(r4)

                    if(pDicEntry->pPrev != NULL)
   20914:	18000126 	beq	r3,zero,2091c <COE_AddObjectToDic+0x58>
                        pDicEntry->pPrev->pNext = pNewObjEntry;
   20918:	19000115 	stw	r4,4(r3)

                    pDicEntry->pPrev = pNewObjEntry;
   2091c:	11000015 	stw	r4,0(r2)

                    return 0;
   20920:	003fee06 	br	208dc <COE_AddObjectToDic+0x18>
                }
                else if(pDicEntry->pNext == NULL)
   20924:	11400117 	ldw	r5,4(r2)
   20928:	2800041e 	bne	r5,zero,2093c <COE_AddObjectToDic+0x78>
                {
                    /*Last entry reached => add object to list tail*/
                    pDicEntry->pNext = pNewObjEntry;
   2092c:	11000115 	stw	r4,4(r2)
                    pNewObjEntry->pPrev = pDicEntry;
   20930:	20800015 	stw	r2,0(r4)
                    pNewObjEntry->pNext = NULL;
   20934:	20000115 	stw	zero,4(r4)
                    return 0;
   20938:	003fe806 	br	208dc <COE_AddObjectToDic+0x18>
   2093c:	2805883a 	mov	r2,r5
                if(pDicEntry->Index == pNewObjEntry->Index)
   20940:	1140020b 	ldhu	r5,8(r2)
   20944:	197fef1e 	bne	r3,r5,20904 <COE_AddObjectToDic+0x40>
                    return ALSTATUSCODE_UNSPECIFIEDERROR;
   20948:	00800044 	movi	r2,1
                }
            }
        }
    }
    return ALSTATUSCODE_UNSPECIFIEDERROR;
}
   2094c:	f800283a 	ret

00020950 <COE_RemoveDicEntry>:

 \brief    This function removes an object to the object dictionary
*////////////////////////////////////////////////////////////////////////////////////////
void COE_RemoveDicEntry(UINT16 index)
{
    TOBJECT    OBJMEM * pDicEntry = ObjDicList;
   20950:	d1613517 	ldw	r5,-31532(gp)

    while(pDicEntry != NULL)
    {
        if(pDicEntry->Index == index)
   20954:	213fffcc 	andi	r4,r4,65535
    TOBJECT    OBJMEM * pDicEntry = ObjDicList;
   20958:	2805883a 	mov	r2,r5
    while(pDicEntry != NULL)
   2095c:	1000011e 	bne	r2,zero,20964 <COE_RemoveDicEntry+0x14>
            return;
        }

        pDicEntry = pDicEntry->pNext;
    }
}
   20960:	f800283a 	ret
        if(pDicEntry->Index == index)
   20964:	1180020b 	ldhu	r6,8(r2)
            TOBJECT OBJMEM *pNextEntry = pDicEntry->pNext;
   20968:	10c00117 	ldw	r3,4(r2)
        if(pDicEntry->Index == index)
   2096c:	31000b1e 	bne	r6,r4,2099c <COE_RemoveDicEntry+0x4c>
            TOBJECT OBJMEM *pPrevEntry = pDicEntry->pPrev;
   20970:	11000017 	ldw	r4,0(r2)
            if(pPrevEntry != NULL)
   20974:	20000126 	beq	r4,zero,2097c <COE_RemoveDicEntry+0x2c>
                pPrevEntry->pNext = pNextEntry;
   20978:	20c00115 	stw	r3,4(r4)
            if(pNextEntry != NULL)
   2097c:	18000126 	beq	r3,zero,20984 <COE_RemoveDicEntry+0x34>
                pNextEntry->pPrev = pPrevEntry;
   20980:	19000015 	stw	r4,0(r3)
            pDicEntry->pPrev = NULL;
   20984:	10000015 	stw	zero,0(r2)
            pDicEntry->pNext = NULL;
   20988:	10000115 	stw	zero,4(r2)
            if(pDicEntry->Index == ObjDicList->Index)
   2098c:	2880020b 	ldhu	r2,8(r5)
   20990:	30bff31e 	bne	r6,r2,20960 <COE_RemoveDicEntry+0x10>
                ObjDicList = pNextEntry;
   20994:	d0e13515 	stw	r3,-31532(gp)
   20998:	f800283a 	ret
            TOBJECT OBJMEM *pNextEntry = pDicEntry->pNext;
   2099c:	1805883a 	mov	r2,r3
   209a0:	003fee06 	br	2095c <COE_RemoveDicEntry+0xc>

000209a4 <COE_ClearObjDictionary>:
/**

 \brief    This function clear the object dictionary
*////////////////////////////////////////////////////////////////////////////////////////
void COE_ClearObjDictionary(void)
{
   209a4:	defffe04 	addi	sp,sp,-8
   209a8:	dc000015 	stw	r16,0(sp)
    TOBJECT OBJMEM * pObjEntry = (TOBJECT OBJMEM *) ObjDicList;
   209ac:	d4213517 	ldw	r16,-31532(gp)
{
   209b0:	dfc00115 	stw	ra,4(sp)
    UINT16 Index = 0;

    while(pObjEntry != NULL)
   209b4:	8000051e 	bne	r16,zero,209cc <COE_ClearObjDictionary+0x28>
        Index = pObjEntry->Index;
        pObjEntry = pObjEntry->pNext;

        COE_RemoveDicEntry(Index);
    }
    ObjDicList = NULL;
   209b8:	d0213515 	stw	zero,-31532(gp)
}
   209bc:	dfc00117 	ldw	ra,4(sp)
   209c0:	dc000017 	ldw	r16,0(sp)
   209c4:	dec00204 	addi	sp,sp,8
   209c8:	f800283a 	ret
        Index = pObjEntry->Index;
   209cc:	8100020b 	ldhu	r4,8(r16)
        pObjEntry = pObjEntry->pNext;
   209d0:	84000117 	ldw	r16,4(r16)
        COE_RemoveDicEntry(Index);
   209d4:	213fffcc 	andi	r4,r4,65535
   209d8:	00209500 	call	20950 <COE_RemoveDicEntry>
   209dc:	003ff506 	br	209b4 <COE_ClearObjDictionary+0x10>

000209e0 <AddObjectsToObjDictionary>:


UINT16 AddObjectsToObjDictionary(TOBJECT OBJMEM * pObjEntry)
{
   209e0:	defffd04 	addi	sp,sp,-12
   209e4:	dc400115 	stw	r17,4(sp)
   209e8:	dc000015 	stw	r16,0(sp)
   209ec:	dfc00215 	stw	ra,8(sp)
   209f0:	2021883a 	mov	r16,r4
    UINT16 result = 0;
    TOBJECT OBJMEM * pEntry = (TOBJECT OBJMEM *)pObjEntry;

    while(pEntry->Index != 0xFFFF)
   209f4:	047fffd4 	movui	r17,65535
   209f8:	8080020b 	ldhu	r2,8(r16)
   209fc:	1440061e 	bne	r2,r17,20a18 <AddObjectsToObjDictionary+0x38>
        }

        pEntry++;
    }

    return result;
   20a00:	0005883a 	mov	r2,zero

}
   20a04:	dfc00217 	ldw	ra,8(sp)
   20a08:	dc400117 	ldw	r17,4(sp)
   20a0c:	dc000017 	ldw	r16,0(sp)
   20a10:	dec00304 	addi	sp,sp,12
   20a14:	f800283a 	ret
        result = COE_AddObjectToDic(pEntry);
   20a18:	8009883a 	mov	r4,r16
   20a1c:	00208c40 	call	208c4 <COE_AddObjectToDic>
        if(result != 0)
   20a20:	10ffffcc 	andi	r3,r2,65535
   20a24:	183ff71e 	bne	r3,zero,20a04 <AddObjectsToObjDictionary+0x24>
        pEntry++;
   20a28:	84000a04 	addi	r16,r16,40
   20a2c:	003ff206 	br	209f8 <AddObjectsToObjDictionary+0x18>

00020a30 <COE_ObjDictionaryInit>:
    UINT16 result = 0;

    /*Reset object dictionary pointer*/
    ObjDicList = NULL;

    result = AddObjectsToObjDictionary((TOBJECT OBJMEM *) GenObjDic);
   20a30:	010000b4 	movhi	r4,2
{
   20a34:	deffff04 	addi	sp,sp,-4
    result = AddObjectsToObjDictionary((TOBJECT OBJMEM *) GenObjDic);
   20a38:	211ffb04 	addi	r4,r4,32748
{
   20a3c:	dfc00015 	stw	ra,0(sp)
    ObjDicList = NULL;
   20a40:	d0213515 	stw	zero,-31532(gp)
    result = AddObjectsToObjDictionary((TOBJECT OBJMEM *) GenObjDic);
   20a44:	00209e00 	call	209e0 <AddObjectsToObjDictionary>

    if(result != 0)
   20a48:	10ffffcc 	andi	r3,r2,65535
   20a4c:	1800051e 	bne	r3,zero,20a64 <COE_ObjDictionaryInit+0x34>
        return result;
    }
    
    if(ApplicationObjDic != NULL)
    {
        result = AddObjectsToObjDictionary((TOBJECT OBJMEM *) ApplicationObjDic);
   20a50:	010000f4 	movhi	r4,3
   20a54:	21207b04 	addi	r4,r4,-32276
    }



    return result;
}
   20a58:	dfc00017 	ldw	ra,0(sp)
   20a5c:	dec00104 	addi	sp,sp,4
        result = AddObjectsToObjDictionary((TOBJECT OBJMEM *) ApplicationObjDic);
   20a60:	00209e01 	jmpi	209e0 <AddObjectsToObjDictionary>
}
   20a64:	dfc00017 	ldw	ra,0(sp)
   20a68:	dec00104 	addi	sp,sp,4
   20a6c:	f800283a 	ret

00020a70 <COE_ObjInit>:
    sSyncManOutPar.subindex0         = 32;
   20a70:	01400804 	movi	r5,32
   20a74:	00c000f4 	movhi	r3,3
   20a78:	19633215 	stw	r5,-29496(r3)
    sSyncManOutPar.u32CycleTime     = 0;
   20a7c:	00c000f4 	movhi	r3,3
{
   20a80:	defffe04 	addi	sp,sp,-8
    sSyncManOutPar.u32CycleTime     = 0;
   20a84:	18233315 	stw	zero,-29492(r3)
    sSyncManOutPar.subindex0         = 32;
   20a88:	008000f4 	movhi	r2,3
    sSyncManOutPar.u32MinCycleTime = MIN_PD_CYCLE_TIME;
   20a8c:	00c000b4 	movhi	r3,2
{
   20a90:	dfc00115 	stw	ra,4(sp)
    sSyncManOutPar.subindex0         = 32;
   20a94:	10a33204 	addi	r2,r2,-29496
    sSyncManOutPar.u16SyncTypesSupported    = SYNCTYPE_FREERUNSUPP            /* ECAT FreeRun Mode is supported */
   20a98:	011007c4 	movi	r4,16415
    sSyncManOutPar.u32MinCycleTime = MIN_PD_CYCLE_TIME;
   20a9c:	18e1a804 	addi	r3,r3,-31072
    sSyncManOutPar.u16SyncTypesSupported    = SYNCTYPE_FREERUNSUPP            /* ECAT FreeRun Mode is supported */
   20aa0:	1100030d 	sth	r4,12(r2)
    sSyncManOutPar.u32MinCycleTime = MIN_PD_CYCLE_TIME;
   20aa4:	10c00415 	stw	r3,16(r2)
    sSyncManOutPar.u32CalcAndCopyTime = (PD_OUTPUT_CALC_AND_COPY_TIME);
   20aa8:	008000f4 	movhi	r2,3
   20aac:	10233715 	stw	zero,-29476(r2)
    sSyncManOutPar.u16GetCycleTime = 0;
   20ab0:	008000f4 	movhi	r2,3
   20ab4:	1023390d 	sth	zero,-29468(r2)
    sSyncManOutPar.u32DelayTime = (PD_OUTPUT_DELAY_TIME);
   20ab8:	008000f4 	movhi	r2,3
   20abc:	10233a15 	stw	zero,-29464(r2)
    sSyncManOutPar.u16SmEventMissedCounter = 0;
   20ac0:	008000f4 	movhi	r2,3
   20ac4:	10233c15 	stw	zero,-29456(r2)
    sSyncManOutPar.u8SyncError = 0;
   20ac8:	008000f4 	movhi	r2,3
   20acc:	10234205 	stb	zero,-29432(r2)
    sSyncManInPar.subindex0         = 32;
   20ad0:	008000f4 	movhi	r2,3
   20ad4:	10a32104 	addi	r2,r2,-29564
    sSyncManInPar.u16SyncTypesSupported    = sSyncManOutPar.u16SyncTypesSupported;
   20ad8:	1100030d 	sth	r4,12(r2)
    sSyncManInPar.u32MinCycleTime = MIN_PD_CYCLE_TIME;
   20adc:	10c00415 	stw	r3,16(r2)
    sSyncManInPar.u32CalcAndCopyTime = (PD_INPUT_CALC_AND_COPY_TIME);
   20ae0:	008000f4 	movhi	r2,3
   20ae4:	10232615 	stw	zero,-29544(r2)
    sSyncManInPar.u16GetCycleTime = 0;
   20ae8:	008000f4 	movhi	r2,3
   20aec:	1023280d 	sth	zero,-29536(r2)
    sSyncManInPar.u32DelayTime = (PD_INPUT_DELAY_TIME);
   20af0:	008000f4 	movhi	r2,3
    sSyncManInPar.subindex0         = 32;
   20af4:	018000f4 	movhi	r6,3
    sSyncManInPar.u32DelayTime = (PD_INPUT_DELAY_TIME);
   20af8:	10232915 	stw	zero,-29532(r2)
    sSyncManInPar.u16SmEventMissedCounter = 0;
   20afc:	008000f4 	movhi	r2,3
    sSyncManInPar.subindex0         = 32;
   20b00:	31632115 	stw	r5,-29564(r6)
    sSyncManInPar.u16SmEventMissedCounter = 0;
   20b04:	10232b15 	stw	zero,-29524(r2)
    sSyncManInPar.u32CycleTime     = sSyncManOutPar.u32CycleTime;
   20b08:	014000f4 	movhi	r5,3
    sSyncManInPar.u8SyncError = 0;
   20b0c:	008000f4 	movhi	r2,3
    sSyncManInPar.u32CycleTime     = sSyncManOutPar.u32CycleTime;
   20b10:	28232215 	stw	zero,-29560(r5)
    sSyncManInPar.u8SyncError = 0;
   20b14:	10233105 	stb	zero,-29500(r2)
    bSyncSetByUser = FALSE;
   20b18:	d0216d85 	stb	zero,-31306(gp)
    UINT16 result = COE_ObjDictionaryInit();
   20b1c:	0020a300 	call	20a30 <COE_ObjDictionaryInit>
    if(result != 0)
   20b20:	10bfffcc 	andi	r2,r2,65535
   20b24:	10000126 	beq	r2,zero,20b2c <COE_ObjInit+0xbc>
        COE_ClearObjDictionary();
   20b28:	00209a40 	call	209a4 <COE_ClearObjDictionary>
        HW_EscReadDWord(EscFeature, ESC_FEATURES_OFFSET);
   20b2c:	01800104 	movi	r6,4
   20b30:	01400204 	movi	r5,8
   20b34:	d809883a 	mov	r4,sp
    u8PendingSdo = 0;
   20b38:	d0217c05 	stb	zero,-31248(gp)
    bStoreCompleteAccess = FALSE;
   20b3c:	d0217bc5 	stb	zero,-31249(gp)
    u16StoreIndex   =   0;
   20b40:	d0217b0d 	sth	zero,-31252(gp)
    u8StoreSubindex = 0;
   20b44:	d0217b85 	stb	zero,-31250(gp)
    u32StoreDataSize = 0;
   20b48:	d0217a15 	stw	zero,-31256(gp)
    pStoreData = NULL;
   20b4c:	d0217915 	stw	zero,-31260(gp)
    pSdoPendFunc    = NULL;
   20b50:	d0217815 	stw	zero,-31264(gp)
    pSdoSegData = NULL;
   20b54:	d0217715 	stw	zero,-31268(gp)
        UINT32 EscFeature = 0;
   20b58:	d8000015 	stw	zero,0(sp)
        HW_EscReadDWord(EscFeature, ESC_FEATURES_OFFSET);
   20b5c:	00205e00 	call	205e0 <HW_EscRead>
        if ((EscFeature & ESC_DC_32BIT_MASK) > 0)
   20b60:	d8800017 	ldw	r2,0(sp)
   20b64:	1080020c 	andi	r2,r2,8
   20b68:	10000626 	beq	r2,zero,20b84 <COE_ObjInit+0x114>
            b32BitDc = FALSE;
   20b6c:	d0215b85 	stb	zero,-31378(gp)
        u32CheckForDcOverrunCnt = CHECK_DC_OVERRUN_IN_MS;
   20b70:	0083e804 	movi	r2,4000
   20b74:	d0a13715 	stw	r2,-31524(gp)
}
   20b78:	dfc00117 	ldw	ra,4(sp)
   20b7c:	dec00204 	addi	sp,sp,8
   20b80:	f800283a 	ret
            b32BitDc = TRUE;
   20b84:	00800044 	movi	r2,1
            HW_EscReadDWord(u32LastDc32Value, ESC_SYSTEMTIME_OFFSET);
   20b88:	01800104 	movi	r6,4
   20b8c:	01424404 	movi	r5,2320
   20b90:	d1213804 	addi	r4,gp,-31520
            b32BitDc = TRUE;
   20b94:	d0a15b85 	stb	r2,-31378(gp)
            HW_EscReadDWord(u32LastDc32Value, ESC_SYSTEMTIME_OFFSET);
   20b98:	00205e00 	call	205e0 <HW_EscRead>
   20b9c:	003ff406 	br	20b70 <COE_ObjInit+0x100>

00020ba0 <COE_Main>:

void COE_Main(void)
{
     UINT8 abort = 0;
     
    if(pSdoPendFunc != NULL)
   20ba0:	d0a17817 	ldw	r2,-31264(gp)
   20ba4:	10003026 	beq	r2,zero,20c68 <COE_Main+0xc8>
    {
        abort = pSdoPendFunc(u16StoreIndex,u8StoreSubindex,u32StoreDataSize,pStoreData,bStoreCompleteAccess);
   20ba8:	d0e17bc3 	ldbu	r3,-31249(gp)
   20bac:	d1e17917 	ldw	r7,-31260(gp)
   20bb0:	d1a17a17 	ldw	r6,-31256(gp)
   20bb4:	d1617b83 	ldbu	r5,-31250(gp)
   20bb8:	d1217b0b 	ldhu	r4,-31252(gp)
{
   20bbc:	defffd04 	addi	sp,sp,-12
   20bc0:	dc000115 	stw	r16,4(sp)
   20bc4:	dfc00215 	stw	ra,8(sp)
        abort = pSdoPendFunc(u16StoreIndex,u8StoreSubindex,u32StoreDataSize,pStoreData,bStoreCompleteAccess);
   20bc8:	d8c00015 	stw	r3,0(sp)
   20bcc:	103ee83a 	callr	r2

        if(abort != ABORTIDX_WORKING)
   20bd0:	14003fcc 	andi	r16,r2,255
   20bd4:	80803fe0 	cmpeqi	r2,r16,255
   20bd8:	10000f1e 	bne	r2,zero,20c18 <COE_Main+0x78>
        {
            switch(u8PendingSdo)
   20bdc:	d0e17c03 	ldbu	r3,-31248(gp)
   20be0:	18803fcc 	andi	r2,r3,255
   20be4:	110000a0 	cmpeqi	r4,r2,2
   20be8:	2000161e 	bne	r4,zero,20c44 <COE_Main+0xa4>
   20bec:	110000e8 	cmpgeui	r4,r2,3
   20bf0:	20000d1e 	bne	r4,zero,20c28 <COE_Main+0x88>
   20bf4:	10800060 	cmpeqi	r2,r2,1
   20bf8:	1000161e 	bne	r2,zero,20c54 <COE_Main+0xb4>
                      SDOS_SdoRes(abort, u32StoreDataSize, pStoreData);
                    break;

            }

            u8PendingSdo = 0;
   20bfc:	d0217c05 	stb	zero,-31248(gp)
            u16StoreIndex = 0;
   20c00:	d0217b0d 	sth	zero,-31252(gp)
            u8StoreSubindex = 0;
   20c04:	d0217b85 	stb	zero,-31250(gp)
            u32StoreDataSize = 0;
   20c08:	d0217a15 	stw	zero,-31256(gp)
            pStoreData = NULL;
   20c0c:	d0217915 	stw	zero,-31260(gp)
            bStoreCompleteAccess = 0;
   20c10:	d0217bc5 	stb	zero,-31249(gp)
            pSdoPendFunc = NULL;
   20c14:	d0217815 	stw	zero,-31264(gp)
        }
    }
}
   20c18:	dfc00217 	ldw	ra,8(sp)
   20c1c:	dc000117 	ldw	r16,4(sp)
   20c20:	dec00304 	addi	sp,sp,12
   20c24:	f800283a 	ret
            switch(u8PendingSdo)
   20c28:	18ffff44 	addi	r3,r3,-3
   20c2c:	18c03fcc 	andi	r3,r3,255
   20c30:	18c000a8 	cmpgeui	r3,r3,2
   20c34:	183ff11e 	bne	r3,zero,20bfc <COE_Main+0x5c>
                      SDOS_SdoRes(abort, u32StoreDataSize, pStoreData);
   20c38:	d1a17917 	ldw	r6,-31260(gp)
   20c3c:	d1617a17 	ldw	r5,-31256(gp)
   20c40:	00000606 	br	20c5c <COE_Main+0xbc>
                    if(pSdoSegData)
   20c44:	d1217717 	ldw	r4,-31268(gp)
   20c48:	20000226 	beq	r4,zero,20c54 <COE_Main+0xb4>
                        FREEMEM( (UINT16 VARMEM *) pSdoSegData );
   20c4c:	002705c0 	call	2705c <free>
                        pSdoSegData = NULL;
   20c50:	d0217715 	stw	zero,-31268(gp)
                    SDOS_SdoRes(abort, 0, NULL);
   20c54:	000d883a 	mov	r6,zero
   20c58:	000b883a 	mov	r5,zero
                      SDOS_SdoRes(abort, u32StoreDataSize, pStoreData);
   20c5c:	8009883a 	mov	r4,r16
   20c60:	00265cc0 	call	265cc <SDOS_SdoRes>
                    break;
   20c64:	003fe506 	br	20bfc <COE_Main+0x5c>
   20c68:	f800283a 	ret

00020c6c <ECAT_CheckTimer>:

void ECAT_CheckTimer(void)
{

    /*decrement the state transition timeout counter*/
    if(bEcatWaitForAlControlRes &&  (EsmTimeoutCounter > 0))
   20c6c:	d0a15983 	ldbu	r2,-31386(gp)
{
   20c70:	deffff04 	addi	sp,sp,-4
   20c74:	dfc00015 	stw	ra,0(sp)
    if(bEcatWaitForAlControlRes &&  (EsmTimeoutCounter > 0))
   20c78:	10000726 	beq	r2,zero,20c98 <ECAT_CheckTimer+0x2c>
   20c7c:	d0a1620b 	ldhu	r2,-31352(gp)
   20c80:	10ffffcc 	andi	r3,r2,65535
   20c84:	18e0001c 	xori	r3,r3,32768
   20c88:	18e00004 	addi	r3,r3,-32768
   20c8c:	00c0020e 	bge	zero,r3,20c98 <ECAT_CheckTimer+0x2c>
    {
        EsmTimeoutCounter--;
   20c90:	10bfffc4 	addi	r2,r2,-1
   20c94:	d0a1620d 	sth	r2,-31352(gp)
    }



    DC_CheckWatchdog();
   20c98:	002358c0 	call	2358c <DC_CheckWatchdog>



/*ECATCHANGE_START(V5.13) */
    /* Increment the counter every ms between two updates based on the system time (32Bit overrun is handled in COE_SyncTimeStamp) */
    if (!b32BitDc || ((u64Timestamp & 0xFFFFFFFF) <= 4293000000UL))
   20c9c:	d0a15b83 	ldbu	r2,-31378(gp)
   20ca0:	10000426 	beq	r2,zero,20cb4 <ECAT_CheckTimer+0x48>
   20ca4:	d0e13917 	ldw	r3,-31516(gp)
   20ca8:	00bff8b4 	movhi	r2,65506
   20cac:	10bed004 	addi	r2,r2,-1216
   20cb0:	10c00f36 	bltu	r2,r3,20cf0 <ECAT_CheckTimer+0x84>
/*ECATCHANGE_END(V5.13) */
    {

        /* the timestamp is stored in ns */
        u64Timestamp = u64Timestamp + 1000000;
   20cb4:	d0a13917 	ldw	r2,-31516(gp)
   20cb8:	00c003f4 	movhi	r3,15
   20cbc:	d1213a17 	ldw	r4,-31512(gp)
   20cc0:	18d09004 	addi	r3,r3,16960
   20cc4:	10c7883a 	add	r3,r2,r3
   20cc8:	1885803a 	cmpltu	r2,r3,r2
   20ccc:	1105883a 	add	r2,r2,r4
   20cd0:	d0e13915 	stw	r3,-31516(gp)
   20cd4:	d0a13a15 	stw	r2,-31512(gp)
    {
        /* in case of a 32Bit DC and almost expired time stamp check for a DC overrun*/
        u32CheckForDcOverrunCnt = CHECK_DC_OVERRUN_IN_MS;
    }

    u32CheckForDcOverrunCnt++;
   20cd8:	d0a13717 	ldw	r2,-31524(gp)
   20cdc:	10800044 	addi	r2,r2,1
   20ce0:	d0a13715 	stw	r2,-31524(gp)


}
   20ce4:	dfc00017 	ldw	ra,0(sp)
   20ce8:	dec00104 	addi	sp,sp,4
   20cec:	f800283a 	ret
        u32CheckForDcOverrunCnt = CHECK_DC_OVERRUN_IN_MS;
   20cf0:	0083e804 	movi	r2,4000
   20cf4:	d0a13715 	stw	r2,-31524(gp)
   20cf8:	003ff706 	br	20cd8 <ECAT_CheckTimer+0x6c>

00020cfc <GetSystemTimeDelay>:
\brief    Calculates the difference between the old and current system time value in ns.
          NOTE: This function only handles a 32Bit system time values (therefore the maximum delay about 4sec).
*////////////////////////////////////////////////////////////////////////////////////////

UINT32 GetSystemTimeDelay(UINT32 u32StartTime)
{
   20cfc:	defffd04 	addi	sp,sp,-12
   20d00:	dc000115 	stw	r16,4(sp)
   UINT32 u32CurValue = 0;
   UINT32 u32Delta = 0;

   
   HW_EscReadDWordIsr(u32CurValue, ESC_SYSTEMTIME_OFFSET);
   20d04:	01800104 	movi	r6,4
{
   20d08:	2021883a 	mov	r16,r4
   HW_EscReadDWordIsr(u32CurValue, ESC_SYSTEMTIME_OFFSET);
   20d0c:	01424404 	movi	r5,2320
   20d10:	d809883a 	mov	r4,sp
{
   20d14:	dfc00215 	stw	ra,8(sp)
   UINT32 u32CurValue = 0;
   20d18:	d8000015 	stw	zero,0(sp)
   HW_EscReadDWordIsr(u32CurValue, ESC_SYSTEMTIME_OFFSET);
   20d1c:	00206580 	call	20658 <HW_EscReadIsr>

   if (u32CurValue > 0)
   20d20:	d8800017 	ldw	r2,0(sp)
   20d24:	10000626 	beq	r2,zero,20d40 <GetSystemTimeDelay+0x44>
   {
      if (u32StartTime <= u32CurValue)
   20d28:	14000936 	bltu	r2,r16,20d50 <GetSystemTimeDelay+0x54>
      {
         u32Delta = u32CurValue - u32StartTime;
   20d2c:	1405c83a 	sub	r2,r2,r16
         //The 32Bit timer is wrapped around
         u32Delta = u32CurValue + (0xFFFFFFFF - u32StartTime);
      }
   }// current value successfully read out

   if (u32StartTime > 0)
   20d30:	80000326 	beq	r16,zero,20d40 <GetSystemTimeDelay+0x44>
   {

       /*the difference between two timestamps are calculated => subtract measurement failure*/
       if (u32SystemTimeReadFailure < u32Delta)
   20d34:	d0e13e17 	ldw	r3,-31496(gp)
   20d38:	1880082e 	bgeu	r3,r2,20d5c <GetSystemTimeDelay+0x60>
       {
           u32Delta = u32Delta - u32SystemTimeReadFailure;
   20d3c:	10c5c83a 	sub	r2,r2,r3
           /*set the delta to 0 if the measurement failure is greater than the calculated difference*/
           u32Delta = 0;
       }
   }
   return u32Delta;
}
   20d40:	dfc00217 	ldw	ra,8(sp)
   20d44:	dc000117 	ldw	r16,4(sp)
   20d48:	dec00304 	addi	sp,sp,12
   20d4c:	f800283a 	ret
         u32Delta = u32CurValue + (0xFFFFFFFF - u32StartTime);
   20d50:	10bfffc4 	addi	r2,r2,-1
   20d54:	1405c83a 	sub	r2,r2,r16
   if (u32StartTime > 0)
   20d58:	003ff606 	br	20d34 <GetSystemTimeDelay+0x38>
   UINT32 u32Delta = 0;
   20d5c:	0005883a 	mov	r2,zero
   return u32Delta;
   20d60:	003ff706 	br	20d40 <GetSystemTimeDelay+0x44>

00020d64 <PDO_InputMapping>:
{
   20d64:	defffc04 	addi	sp,sp,-16
   20d68:	dc800215 	stw	r18,8(sp)
   20d6c:	dc000015 	stw	r16,0(sp)
    if (MEASUREMENT_ACTIVE)
   20d70:	048000f4 	movhi	r18,3
   20d74:	040000f4 	movhi	r16,3
{
   20d78:	dfc00315 	stw	ra,12(sp)
   20d7c:	dc400115 	stw	r17,4(sp)
    if (MEASUREMENT_ACTIVE)
   20d80:	94a33204 	addi	r18,r18,-29496
    UINT16 ALEvent = HW_GetALEventRegister_Isr();
   20d84:	00205b80 	call	205b8 <HW_GetALEventRegister_Isr>
    if (MEASUREMENT_ACTIVE)
   20d88:	84232104 	addi	r16,r16,-29564
   20d8c:	9080070b 	ldhu	r2,28(r18)
   20d90:	80c0070b 	ldhu	r3,28(r16)
   20d94:	10c4b03a 	or	r2,r2,r3
   20d98:	1080004c 	andi	r2,r2,1
   20d9c:	10001b26 	beq	r2,zero,20e0c <PDO_InputMapping+0xa8>
        u32TimeValue = GetSystemTimeDelay(0);
   20da0:	0009883a 	mov	r4,zero
   20da4:	0020cfc0 	call	20cfc <GetSystemTimeDelay>
   20da8:	1023883a 	mov	r17,r2
    APPL_InputMapping((UINT16*)aPdInputData);
   20dac:	010000f4 	movhi	r4,3
   20db0:	21227a04 	addi	r4,r4,-30232
   20db4:	00202780 	call	20278 <APPL_InputMapping>
    HW_EscWriteIsr(((MEM_ADDR *) aPdInputData), nEscAddrInputData, nPdInputSize );
   20db8:	d1a1588b 	ldhu	r6,-31390(gp)
   20dbc:	d161550b 	ldhu	r5,-31404(gp)
   20dc0:	010000f4 	movhi	r4,3
   20dc4:	21227a04 	addi	r4,r4,-30232
   20dc8:	00207280 	call	20728 <HW_EscWriteIsr>
    if (MEASUREMENT_ACTIVE)
   20dcc:	90c0070b 	ldhu	r3,28(r18)
   20dd0:	8080070b 	ldhu	r2,28(r16)
   20dd4:	1886b03a 	or	r3,r3,r2
   20dd8:	18c0004c 	andi	r3,r3,1
   20ddc:	18000526 	beq	r3,zero,20df4 <PDO_InputMapping+0x90>
        u32TimeValue = GetSystemTimeDelay(u32TimeValue);
   20de0:	8809883a 	mov	r4,r17
   20de4:	0020cfc0 	call	20cfc <GetSystemTimeDelay>
        if (sSyncManInPar.u32CalcAndCopyTime < u32TimeValue)
   20de8:	80c00517 	ldw	r3,20(r16)
   20dec:	1880012e 	bgeu	r3,r2,20df4 <PDO_InputMapping+0x90>
            sSyncManInPar.u32CalcAndCopyTime = u32TimeValue;
   20df0:	80800515 	stw	r2,20(r16)
}
   20df4:	dfc00317 	ldw	ra,12(sp)
   20df8:	dc800217 	ldw	r18,8(sp)
   20dfc:	dc400117 	ldw	r17,4(sp)
   20e00:	dc000017 	ldw	r16,0(sp)
   20e04:	dec00404 	addi	sp,sp,16
   20e08:	f800283a 	ret
    UINT32 u32TimeValue = 0;
   20e0c:	0023883a 	mov	r17,zero
   20e10:	003fe606 	br	20dac <PDO_InputMapping+0x48>

00020e14 <HandleCycleTimeMeasurement>:
    if (!bDcSyncActive) //no DC sync configured (cycle time measurement 0x1C3x.2 is only available in no DC sync modes)
   20e14:	d0a16283 	ldbu	r2,-31350(gp)
   20e18:	1000181e 	bne	r2,zero,20e7c <HandleCycleTimeMeasurement+0x68>
        if (u32CycleTimeStartValue > 0)
   20e1c:	d1214017 	ldw	r4,-31488(gp)
{
   20e20:	deffff04 	addi	sp,sp,-4
   20e24:	dfc00015 	stw	ra,0(sp)
        if (u32CycleTimeStartValue > 0)
   20e28:	20000e26 	beq	r4,zero,20e64 <HandleCycleTimeMeasurement+0x50>
            u32CycleTimeStartValue = GetSystemTimeDelay(u32CycleTimeStartValue);
   20e2c:	0020cfc0 	call	20cfc <GetSystemTimeDelay>
            if ((sSyncManOutPar.u32CycleTime == 0) || (sSyncManOutPar.u32CycleTime > u32CycleTimeStartValue))
   20e30:	00c000f4 	movhi	r3,3
   20e34:	18e33204 	addi	r3,r3,-29496
   20e38:	19000117 	ldw	r4,4(r3)
            u32CycleTimeStartValue = GetSystemTimeDelay(u32CycleTimeStartValue);
   20e3c:	d0a14015 	stw	r2,-31488(gp)
            if ((sSyncManOutPar.u32CycleTime == 0) || (sSyncManOutPar.u32CycleTime > u32CycleTimeStartValue))
   20e40:	20000126 	beq	r4,zero,20e48 <HandleCycleTimeMeasurement+0x34>
   20e44:	1100012e 	bgeu	r2,r4,20e4c <HandleCycleTimeMeasurement+0x38>
                    sSyncManOutPar.u32CycleTime = u32CycleTimeStartValue;
   20e48:	18800115 	stw	r2,4(r3)
            if ((sSyncManInPar.u32CycleTime == 0) || (sSyncManInPar.u32CycleTime > u32CycleTimeStartValue))
   20e4c:	00c000f4 	movhi	r3,3
   20e50:	18e32104 	addi	r3,r3,-29564
   20e54:	19000117 	ldw	r4,4(r3)
   20e58:	20000126 	beq	r4,zero,20e60 <HandleCycleTimeMeasurement+0x4c>
   20e5c:	1100012e 	bgeu	r2,r4,20e64 <HandleCycleTimeMeasurement+0x50>
                    sSyncManInPar.u32CycleTime = u32CycleTimeStartValue;
   20e60:	18800115 	stw	r2,4(r3)
        u32CycleTimeStartValue = GetSystemTimeDelay(0);
   20e64:	0009883a 	mov	r4,zero
   20e68:	0020cfc0 	call	20cfc <GetSystemTimeDelay>
   20e6c:	d0a14015 	stw	r2,-31488(gp)
}
   20e70:	dfc00017 	ldw	ra,0(sp)
   20e74:	dec00104 	addi	sp,sp,4
   20e78:	f800283a 	ret
   20e7c:	f800283a 	ret

00020e80 <PDO_OutputMapping>:
{
   20e80:	defffc04 	addi	sp,sp,-16
   20e84:	dc800215 	stw	r18,8(sp)
   20e88:	dc000015 	stw	r16,0(sp)
   if (MEASUREMENT_ACTIVE)
   20e8c:	048000f4 	movhi	r18,3
   20e90:	040000f4 	movhi	r16,3
   20e94:	84233204 	addi	r16,r16,-29496
   20e98:	94a32104 	addi	r18,r18,-29564
   20e9c:	8080070b 	ldhu	r2,28(r16)
   20ea0:	90c0070b 	ldhu	r3,28(r18)
{
   20ea4:	dfc00315 	stw	ra,12(sp)
   20ea8:	dc400115 	stw	r17,4(sp)
   if (MEASUREMENT_ACTIVE)
   20eac:	10c4b03a 	or	r2,r2,r3
   20eb0:	1080004c 	andi	r2,r2,1
   20eb4:	10002026 	beq	r2,zero,20f38 <PDO_OutputMapping+0xb8>
      u32TimeValue = GetSystemTimeDelay(0);
   20eb8:	0009883a 	mov	r4,zero
   20ebc:	0020cfc0 	call	20cfc <GetSystemTimeDelay>
   20ec0:	1023883a 	mov	r17,r2
      u32MinCycleTimeStartValue = u32TimeValue;
   20ec4:	d0a13f15 	stw	r2,-31492(gp)
      bMinCycleTimeMeasurementStarted = TRUE;
   20ec8:	00800044 	movi	r2,1
   20ecc:	d0a13d05 	stb	r2,-31500(gp)
      u32MinCycleTimeValue = 0;
   20ed0:	d0213c15 	stw	zero,-31504(gp)
      HandleCycleTimeMeasurement();
   20ed4:	0020e140 	call	20e14 <HandleCycleTimeMeasurement>
    HW_EscReadIsr(((MEM_ADDR *)aPdOutputData), nEscAddrOutputData, nPdOutputSize );
   20ed8:	d1a1580b 	ldhu	r6,-31392(gp)
   20edc:	d161558b 	ldhu	r5,-31402(gp)
   20ee0:	010000f4 	movhi	r4,3
   20ee4:	21230304 	addi	r4,r4,-29684
   20ee8:	00206580 	call	20658 <HW_EscReadIsr>
    APPL_OutputMapping((UINT16*) aPdOutputData);
   20eec:	010000f4 	movhi	r4,3
   20ef0:	21230304 	addi	r4,r4,-29684
   20ef4:	00202c40 	call	202c4 <APPL_OutputMapping>
    if (MEASUREMENT_ACTIVE)
   20ef8:	8080070b 	ldhu	r2,28(r16)
   20efc:	90c0070b 	ldhu	r3,28(r18)
   20f00:	10c4b03a 	or	r2,r2,r3
   20f04:	1080004c 	andi	r2,r2,1
   20f08:	10000526 	beq	r2,zero,20f20 <PDO_OutputMapping+0xa0>
       u32TimeValue = GetSystemTimeDelay(u32TimeValue);
   20f0c:	8809883a 	mov	r4,r17
   20f10:	0020cfc0 	call	20cfc <GetSystemTimeDelay>
       if (sSyncManOutPar.u32CalcAndCopyTime < u32TimeValue)
   20f14:	80c00517 	ldw	r3,20(r16)
   20f18:	1880012e 	bgeu	r3,r2,20f20 <PDO_OutputMapping+0xa0>
          sSyncManOutPar.u32CalcAndCopyTime = u32TimeValue;
   20f1c:	80800515 	stw	r2,20(r16)
}
   20f20:	dfc00317 	ldw	ra,12(sp)
   20f24:	dc800217 	ldw	r18,8(sp)
   20f28:	dc400117 	ldw	r17,4(sp)
   20f2c:	dc000017 	ldw	r16,0(sp)
   20f30:	dec00404 	addi	sp,sp,16
   20f34:	f800283a 	ret
   UINT32 u32TimeValue = 0;
   20f38:	0023883a 	mov	r17,zero
   20f3c:	003fe606 	br	20ed8 <PDO_OutputMapping+0x58>

00020f40 <Sync1_Isr>:
void Sync1_Isr(void)
{
    Sync1WdCounter = 0;

    /*ECATCHANGE_START(V5.13) ECAT 5*/
    if ( (bEcatInputUpdateRunning == TRUE) && (nPdInputSize > 0)
   20f40:	d0a16343 	ldbu	r2,-31347(gp)
    Sync1WdCounter = 0;
   20f44:	d0215d8d 	sth	zero,-31370(gp)
    if ( (bEcatInputUpdateRunning == TRUE) && (nPdInputSize > 0)
   20f48:	10800058 	cmpnei	r2,r2,1
   20f4c:	10000f1e 	bne	r2,zero,20f8c <Sync1_Isr+0x4c>
   20f50:	d0a1588b 	ldhu	r2,-31390(gp)
   20f54:	10000d26 	beq	r2,zero,20f8c <Sync1_Isr+0x4c>
/*ECATCHANGE_END(V5.13) ECAT 5*/
            && (sSyncManInPar.u16SyncType == SYNCTYPE_DCSYNC1)
   20f58:	008000f4 	movhi	r2,3
   20f5c:	10a3218b 	ldhu	r2,-29562(r2)
   20f60:	108000d8 	cmpnei	r2,r2,3
   20f64:	1000091e 	bne	r2,zero,20f8c <Sync1_Isr+0x4c>
            && (LatchInputSync0Value == 0)) /* Inputs are latched on Sync1 (LatchInputSync0Value == 0), if LatchInputSync0Value > 0 inputs are latched with Sync0 */
   20f68:	d0a15c8b 	ldhu	r2,-31374(gp)
   20f6c:	1000071e 	bne	r2,zero,20f8c <Sync1_Isr+0x4c>
{
   20f70:	deffff04 	addi	sp,sp,-4
   20f74:	dfc00015 	stw	ra,0(sp)
        {
            /* EtherCAT slave is at least in SAFE-OPERATIONAL, update inputs */
            PDO_InputMapping();
   20f78:	0020d640 	call	20d64 <PDO_InputMapping>
        }

        /* Reset Sync0 latch counter (to start next Sync0 latch cycle) */
        LatchInputSync0Counter = 0;
   20f7c:	d0215c0d 	sth	zero,-31376(gp)
}
   20f80:	dfc00017 	ldw	ra,0(sp)
   20f84:	dec00104 	addi	sp,sp,4
   20f88:	f800283a 	ret
        LatchInputSync0Counter = 0;
   20f8c:	d0215c0d 	sth	zero,-31376(gp)
   20f90:	f800283a 	ret

00020f94 <MainInit>:
 \brief    This function initialize the EtherCAT Sample Code

*////////////////////////////////////////////////////////////////////////////////////////

UINT16 MainInit(void)
{
   20f94:	defffc04 	addi	sp,sp,-16
   20f98:	dfc00315 	stw	ra,12(sp)
   20f9c:	dc000215 	stw	r16,8(sp)

/* Reset application function pointer*/



    pAPPL_FoeRead = NULL;
   20fa0:	d0214815 	stw	zero,-31456(gp)
    pAPPL_FoeReadData = NULL;
   20fa4:	d0214715 	stw	zero,-31460(gp)
    pAPPL_FoeError = NULL;
   20fa8:	d0214615 	stw	zero,-31464(gp)
    pAPPL_FoeWrite = NULL;
   20fac:	d0214515 	stw	zero,-31468(gp)
    pAPPL_FoeWriteData = NULL;
   20fb0:	d0214415 	stw	zero,-31472(gp)

    /* ECATCHANGE_START(V5.13) COE4*/
    pAPPL_CoeReadInd = NULL;
   20fb4:	d0214315 	stw	zero,-31476(gp)
    pAPPL_CoeWriteInd = NULL;
   20fb8:	d0214215 	stw	zero,-31480(gp)
    /* ECATCHANGE_END(V5.13) COE4*/

    pAPPL_MainLoop = NULL;
   20fbc:	d0214115 	stw	zero,-31484(gp)

    /* initialize the EtherCAT Slave Interface */
    ECAT_Init();
   20fc0:	00239080 	call	23908 <ECAT_Init>
    /* initialize the objects */
    COE_ObjInit();
   20fc4:	0020a700 	call	20a70 <COE_ObjInit>

    /*Reset PDI Access*/
    {
    UINT16 eepromConfigControl = 0; //register (0x0500 : 0x0503) values

    HW_EscReadWord(eepromConfigControl,ESC_EEPROM_CONFIG_OFFSET);
   20fc8:	01800084 	movi	r6,2
   20fcc:	01414004 	movi	r5,1280
   20fd0:	d9000104 	addi	r4,sp,4
    UINT16 eepromConfigControl = 0; //register (0x0500 : 0x0503) values
   20fd4:	d800010d 	sth	zero,4(sp)
    HW_EscReadWord(eepromConfigControl,ESC_EEPROM_CONFIG_OFFSET);
   20fd8:	00205e00 	call	205e0 <HW_EscRead>
    eepromConfigControl = SWAPWORD(eepromConfigControl);
   20fdc:	d880010b 	ldhu	r2,4(sp)

    if((eepromConfigControl & ESC_EEPROM_ASSIGN_TO_PDI_MASK) > 0)
   20fe0:	10c0004c 	andi	r3,r2,1
   20fe4:	18000626 	beq	r3,zero,21000 <MainInit+0x6c>
    {
        /*Clear access register(0x0501.1)*/
        eepromConfigControl &= ~ESC_EEPROM_LOCKED_BY_PDI_MASK;
   20fe8:	10bfbfcc 	andi	r2,r2,65279

        eepromConfigControl = SWAPWORD(eepromConfigControl);
        HW_EscWriteWord(eepromConfigControl,ESC_EEPROM_CONFIG_OFFSET);
   20fec:	01800084 	movi	r6,2
   20ff0:	01414004 	movi	r5,1280
   20ff4:	d9000104 	addi	r4,sp,4
        eepromConfigControl &= ~ESC_EEPROM_LOCKED_BY_PDI_MASK;
   20ff8:	d880010d 	sth	r2,4(sp)
        HW_EscWriteWord(eepromConfigControl,ESC_EEPROM_CONFIG_OFFSET);
   20ffc:	00206640 	call	20664 <HW_EscWrite>
    }
    }
    /*indicate that the slave stack initialization finished*/
    bInitFinished = TRUE;
   21000:	00800044 	movi	r2,1
   21004:	d0a13b05 	stb	r2,-31508(gp)


    bMinCycleTimeMeasurementStarted = FALSE;
   21008:	d0213d05 	stb	zero,-31500(gp)
    u32CycleTimeStartValue = 0;
   2100c:	d0214015 	stw	zero,-31488(gp)
    u32MinCycleTimeStartValue = 0;
   21010:	d0213f15 	stw	zero,-31492(gp)

    u32SystemTimeReadFailure = 0;
   21014:	d0213e15 	stw	zero,-31496(gp)

    /* Get the System Time read failure */
    {
       UINT32 u32TimeValue = 0;
   21018:	d8000015 	stw	zero,0(sp)
       UINT32 u32Cnt = 0;
       UINT32 u32Delta = 0;
   2101c:	d8000115 	stw	zero,4(sp)
   21020:	0400fa04 	movi	r16,1000

       while (u32Cnt < 1000)
       {
           HW_EscReadDWordIsr(u32TimeValue, ESC_SYSTEMTIME_OFFSET);
   21024:	01800104 	movi	r6,4
   21028:	01424404 	movi	r5,2320
   2102c:	d809883a 	mov	r4,sp
   21030:	00206580 	call	20658 <HW_EscReadIsr>
           HW_EscReadDWordIsr(u32Delta, ESC_SYSTEMTIME_OFFSET);
   21034:	01800104 	movi	r6,4
   21038:	01424404 	movi	r5,2320
   2103c:	d9000104 	addi	r4,sp,4
   21040:	00206580 	call	20658 <HW_EscReadIsr>

            if (u32TimeValue <= u32Delta)
   21044:	d8800017 	ldw	r2,0(sp)
   21048:	d8c00117 	ldw	r3,4(sp)
   2104c:	18800636 	bltu	r3,r2,21068 <MainInit+0xd4>
                    u32Delta = u32Delta - u32TimeValue;
            }
            else
            {
                //The 32Bit timer is wrapped around
                u32Delta = u32Delta + (0xFFFFFFFF - u32TimeValue);
   21050:	1885c83a 	sub	r2,r3,r2
            }


            if (u32SystemTimeReadFailure == 0)
   21054:	d0e13e17 	ldw	r3,-31496(gp)
                    u32Delta = u32Delta - u32TimeValue;
   21058:	d8800115 	stw	r2,4(sp)
            if (u32SystemTimeReadFailure == 0)
   2105c:	1800041e 	bne	r3,zero,21070 <MainInit+0xdc>
            {
                u32SystemTimeReadFailure = u32Delta;
            }
            else if (u32SystemTimeReadFailure > u32Delta)
            {
                u32SystemTimeReadFailure = u32Delta;
   21060:	d0a13e15 	stw	r2,-31496(gp)
   21064:	00000306 	br	21074 <MainInit+0xe0>
                u32Delta = u32Delta + (0xFFFFFFFF - u32TimeValue);
   21068:	18ffffc4 	addi	r3,r3,-1
   2106c:	003ff806 	br	21050 <MainInit+0xbc>
            else if (u32SystemTimeReadFailure > u32Delta)
   21070:	10fffb36 	bltu	r2,r3,21060 <MainInit+0xcc>
       while (u32Cnt < 1000)
   21074:	843fffc4 	addi	r16,r16,-1
   21078:	803fea1e 	bne	r16,zero,21024 <MainInit+0x90>



/*Application Init need to be called from the application layer*/
     return Error;
}
   2107c:	0005883a 	mov	r2,zero
   21080:	dfc00317 	ldw	ra,12(sp)
   21084:	dc000217 	ldw	r16,8(sp)
   21088:	dec00404 	addi	sp,sp,16
   2108c:	f800283a 	ret

00021090 <ECAT_Application>:
            u32MinCycleTimeValue = 0;
        }
    } /* measurement started*/
#endif /* (MIN_PD_CYCLE_TIME == 0)*/

    if (MEASUREMENT_ACTIVE)
   21090:	008000f4 	movhi	r2,3
   21094:	00c000f4 	movhi	r3,3
   21098:	10a3390b 	ldhu	r2,-29468(r2)
   2109c:	18e3280b 	ldhu	r3,-29536(r3)
   210a0:	10c4b03a 	or	r2,r2,r3
   210a4:	1080004c 	andi	r2,r2,1
   210a8:	10000726 	beq	r2,zero,210c8 <ECAT_Application+0x38>
    {
        if (nPdOutputSize == 0)
   210ac:	d0a1580b 	ldhu	r2,-31392(gp)
   210b0:	1000051e 	bne	r2,zero,210c8 <ECAT_Application+0x38>
{
   210b4:	deffff04 	addi	sp,sp,-4
   210b8:	dfc00015 	stw	ra,0(sp)
        {
            /* in case of an input only device the cycle starts with an ECAT_Application call*/
            HandleCycleTimeMeasurement();
   210bc:	0020e140 	call	20e14 <HandleCycleTimeMeasurement>
            }
        }

    }/* measurement started*/
#endif /* #if MIN_PD_CYCLE_TIME == 0 */
}
   210c0:	dfc00017 	ldw	ra,0(sp)
   210c4:	dec00104 	addi	sp,sp,4
    APPL_Application();
   210c8:	00203101 	jmpi	20310 <APPL_Application>

000210cc <Sync0_Isr>:
    if(bDcSyncActive)
   210cc:	d0a16283 	ldbu	r2,-31350(gp)
     Sync0WdCounter = 0;
   210d0:	d0215e8d 	sth	zero,-31366(gp)
    if(bDcSyncActive)
   210d4:	10000d26 	beq	r2,zero,2110c <Sync0_Isr+0x40>
{
   210d8:	defffe04 	addi	sp,sp,-8
   210dc:	dc000015 	stw	r16,0(sp)
        if ((bEcatInputUpdateRunning == TRUE) && (LatchInputSync0Value > 0) && (nPdInputSize > 0))
   210e0:	d4216343 	ldbu	r16,-31347(gp)
{
   210e4:	dfc00115 	stw	ra,4(sp)
   210e8:	d0a1608b 	ldhu	r2,-31358(gp)
        if ((bEcatInputUpdateRunning == TRUE) && (LatchInputSync0Value > 0) && (nPdInputSize > 0))
   210ec:	80c03fcc 	andi	r3,r16,255
   210f0:	18c00060 	cmpeqi	r3,r3,1
   210f4:	1800061e 	bne	r3,zero,21110 <Sync0_Isr+0x44>
        if(u16SmSync0Value > 0)
   210f8:	1000181e 	bne	r2,zero,2115c <Sync0_Isr+0x90>
        ECAT_Application();
   210fc:	00210900 	call	21090 <ECAT_Application>
}
   21100:	dfc00117 	ldw	ra,4(sp)
   21104:	dc000017 	ldw	r16,0(sp)
   21108:	dec00204 	addi	sp,sp,8
    COE_UpdateSyncErrorStatus();
   2110c:	00208681 	jmpi	20868 <COE_UpdateSyncErrorStatus>
        if ((bEcatInputUpdateRunning == TRUE) && (LatchInputSync0Value > 0) && (nPdInputSize > 0))
   21110:	d1215c8b 	ldhu	r4,-31374(gp)
   21114:	203ff826 	beq	r4,zero,210f8 <Sync0_Isr+0x2c>
   21118:	d0e1588b 	ldhu	r3,-31390(gp)
   2111c:	183ff626 	beq	r3,zero,210f8 <Sync0_Isr+0x2c>
            if(LatchInputSync0Value > LatchInputSync0Counter) /* Inputs shall be latched on a specific Sync0 event */
   21120:	d0e15c0b 	ldhu	r3,-31376(gp)
   21124:	197fffcc 	andi	r5,r3,65535
   21128:	2900022e 	bgeu	r5,r4,21134 <Sync0_Isr+0x68>
                LatchInputSync0Counter++;
   2112c:	18c00044 	addi	r3,r3,1
   21130:	d0e15c0d 	sth	r3,-31376(gp)
            if (LatchInputSync0Value == LatchInputSync0Counter)
   21134:	d0e15c0b 	ldhu	r3,-31376(gp)
   21138:	20ffef1e 	bne	r4,r3,210f8 <Sync0_Isr+0x2c>
        if(u16SmSync0Value > 0)
   2113c:	1000081e 	bne	r2,zero,21160 <Sync0_Isr+0x94>
        ECAT_Application();
   21140:	00210900 	call	21090 <ECAT_Application>
            PDO_InputMapping();
   21144:	0020d640 	call	20d64 <PDO_InputMapping>
            if(LatchInputSync0Value == 1)
   21148:	d0a15c8b 	ldhu	r2,-31374(gp)
   2114c:	10800058 	cmpnei	r2,r2,1
   21150:	103feb1e 	bne	r2,zero,21100 <Sync0_Isr+0x34>
                LatchInputSync0Counter = 0;
   21154:	d0215c0d 	sth	zero,-31376(gp)
   21158:	003fe906 	br	21100 <Sync0_Isr+0x34>
        BOOL bCallInputMapping = FALSE;
   2115c:	0021883a 	mov	r16,zero
           if (u16SmSync0Counter > u16SmSync0Value)
   21160:	d0e1610b 	ldhu	r3,-31356(gp)
   21164:	d121580b 	ldhu	r4,-31392(gp)
   21168:	197fffcc 	andi	r5,r3,65535
   2116c:	11400a36 	bltu	r2,r5,21198 <Sync0_Isr+0xcc>
           if ((nPdOutputSize == 0) && (nPdInputSize > 0))
   21170:	20002b1e 	bne	r4,zero,21220 <Sync0_Isr+0x154>
   21174:	d0a1588b 	ldhu	r2,-31390(gp)
   21178:	10002926 	beq	r2,zero,21220 <Sync0_Isr+0x154>
              UINT16  ALEvent = HW_GetALEventRegister_Isr();
   2117c:	00205b80 	call	205b8 <HW_GetALEventRegister_Isr>
              if ((ALEvent & PROCESS_INPUT_EVENT) == 0)
   21180:	1082000c 	andi	r2,r2,2048
   21184:	10001f26 	beq	r2,zero,21204 <Sync0_Isr+0x138>
                 sSyncManInPar.u16SmEventMissedCounter = 0;
   21188:	008000f4 	movhi	r2,3
                 u16SmSync0Counter = 0;
   2118c:	d021610d 	sth	zero,-31356(gp)
                 sSyncManInPar.u16SmEventMissedCounter = 0;
   21190:	10232b0d 	sth	zero,-29524(r2)
   21194:	00001606 	br	211f0 <Sync0_Isr+0x124>
              if ((nPdOutputSize > 0) && (sSyncManOutPar.u16SmEventMissedCounter <= sErrorSettings.u16SyncErrorCounterLimit))
   21198:	20000c1e 	bne	r4,zero,211cc <Sync0_Isr+0x100>
               if ((nPdInputSize > 0) && (nPdOutputSize == 0) && (sSyncManInPar.u16SmEventMissedCounter <= sErrorSettings.u16SyncErrorCounterLimit))
   2119c:	d0a1588b 	ldhu	r2,-31390(gp)
   211a0:	10001326 	beq	r2,zero,211f0 <Sync0_Isr+0x124>
   211a4:	008000f4 	movhi	r2,3
   211a8:	10a32104 	addi	r2,r2,-29564
   211ac:	10c00a0b 	ldhu	r3,40(r2)
   211b0:	014000f4 	movhi	r5,3
   211b4:	2960db0b 	ldhu	r5,-31892(r5)
   211b8:	193fffcc 	andi	r4,r3,65535
   211bc:	293fef36 	bltu	r5,r4,2117c <Sync0_Isr+0xb0>
                   sSyncManInPar.u16SmEventMissedCounter = sSyncManInPar.u16SmEventMissedCounter + 3;
   211c0:	18c000c4 	addi	r3,r3,3
   211c4:	10c00a0d 	sth	r3,40(r2)
           if ((nPdOutputSize == 0) && (nPdInputSize > 0))
   211c8:	003fec06 	br	2117c <Sync0_Isr+0xb0>
              if ((nPdOutputSize > 0) && (sSyncManOutPar.u16SmEventMissedCounter <= sErrorSettings.u16SyncErrorCounterLimit))
   211cc:	008000f4 	movhi	r2,3
   211d0:	10a33204 	addi	r2,r2,-29496
   211d4:	010000f4 	movhi	r4,3
   211d8:	10c00a0b 	ldhu	r3,40(r2)
   211dc:	2160db0b 	ldhu	r5,-31892(r4)
   211e0:	193fffcc 	andi	r4,r3,65535
   211e4:	29000236 	bltu	r5,r4,211f0 <Sync0_Isr+0x124>
                 sSyncManOutPar.u16SmEventMissedCounter = sSyncManOutPar.u16SmEventMissedCounter + 3;
   211e8:	18c000c4 	addi	r3,r3,3
   211ec:	10c00a0d 	sth	r3,40(r2)
        if (bCallInputMapping == TRUE)
   211f0:	84003fcc 	andi	r16,r16,255
   211f4:	84000058 	cmpnei	r16,r16,1
        ECAT_Application();
   211f8:	00210900 	call	21090 <ECAT_Application>
        if (bCallInputMapping == TRUE)
   211fc:	803fd126 	beq	r16,zero,21144 <Sync0_Isr+0x78>
   21200:	003fbf06 	br	21100 <Sync0_Isr+0x34>
                if (u16SmSync0Counter <= u16SmSync0Value)
   21204:	d0a1610b 	ldhu	r2,-31356(gp)
   21208:	d121608b 	ldhu	r4,-31358(gp)
   2120c:	10ffffcc 	andi	r3,r2,65535
   21210:	20fff736 	bltu	r4,r3,211f0 <Sync0_Isr+0x124>
                    u16SmSync0Counter++;
   21214:	10800044 	addi	r2,r2,1
   21218:	d0a1610d 	sth	r2,-31356(gp)
   2121c:	003ff406 	br	211f0 <Sync0_Isr+0x124>
               u16SmSync0Counter++;
   21220:	18c00044 	addi	r3,r3,1
   21224:	d0e1610d 	sth	r3,-31356(gp)
   21228:	003ff106 	br	211f0 <Sync0_Isr+0x124>

0002122c <PDI_Isr>:
{
   2122c:	defffb04 	addi	sp,sp,-20
   21230:	dc000115 	stw	r16,4(sp)
   21234:	dfc00415 	stw	ra,16(sp)
   21238:	dc800315 	stw	r18,12(sp)
   2123c:	dc400215 	stw	r17,8(sp)
    UINT16  ALEvent = HW_GetALEventRegister_Isr();
   21240:	00205b80 	call	205b8 <HW_GetALEventRegister_Isr>
   21244:	1021883a 	mov	r16,r2
    if (ALEvent & SYNC1_EVENT)
   21248:	8080020c 	andi	r2,r16,8
   2124c:	10000b1e 	bne	r2,zero,2127c <PDI_Isr+0x50>
    if(bEscIntEnabled)
   21250:	d0a15b43 	ldbu	r2,-31379(gp)
   21254:	10000f1e 	bne	r2,zero,21294 <PDI_Isr+0x68>
    if (ALEvent & SYNC0_EVENT)
   21258:	8400010c 	andi	r16,r16,4
   2125c:	80004d26 	beq	r16,zero,21394 <PDI_Isr+0x168>
        Sync0_Isr();
   21260:	00210cc0 	call	210cc <Sync0_Isr>
        HW_EscReadDWord(SyncState, ESC_DC_SYNC_STATUS);
   21264:	01800104 	movi	r6,4
   21268:	01426304 	movi	r5,2444
   2126c:	d809883a 	mov	r4,sp
        volatile UINT32 SyncState = 0;
   21270:	d8000015 	stw	zero,0(sp)
        HW_EscReadDWord(SyncState, ESC_DC_SYNC_STATUS);
   21274:	00205e00 	call	205e0 <HW_EscRead>
   21278:	00004606 	br	21394 <PDI_Isr+0x168>
        Sync1_Isr();
   2127c:	0020f400 	call	20f40 <Sync1_Isr>
    if(bEscIntEnabled)
   21280:	d0a15b43 	ldbu	r2,-31379(gp)
   21284:	10004a1e 	bne	r2,zero,213b0 <PDI_Isr+0x184>
    if (ALEvent & SYNC0_EVENT)
   21288:	8400010c 	andi	r16,r16,4
   2128c:	803ff526 	beq	r16,zero,21264 <PDI_Isr+0x38>
   21290:	003ff306 	br	21260 <PDI_Isr+0x34>
    BOOL SyncAcknowledgePending = FALSE;
   21294:	0025883a 	mov	r18,zero
        if ( ALEvent & PROCESS_OUTPUT_EVENT )
   21298:	044000f4 	movhi	r17,3
   2129c:	8401000c 	andi	r16,r16,1024
   212a0:	8c633204 	addi	r17,r17,-29496
   212a4:	80001226 	beq	r16,zero,212f0 <PDI_Isr+0xc4>
            if(bDcRunning && bDcSyncActive)
   212a8:	d0a16183 	ldbu	r2,-31354(gp)
   212ac:	10000326 	beq	r2,zero,212bc <PDI_Isr+0x90>
   212b0:	d0a16283 	ldbu	r2,-31350(gp)
   212b4:	10000126 	beq	r2,zero,212bc <PDI_Isr+0x90>
                u16SmSync0Counter = 0;
   212b8:	d021610d 	sth	zero,-31356(gp)
            if(sSyncManOutPar.u16SmEventMissedCounter > 0)
   212bc:	88800a0b 	ldhu	r2,40(r17)
   212c0:	10ffffcc 	andi	r3,r2,65535
   212c4:	18000226 	beq	r3,zero,212d0 <PDI_Isr+0xa4>
                sSyncManOutPar.u16SmEventMissedCounter--;
   212c8:	10bfffc4 	addi	r2,r2,-1
   212cc:	88800a0d 	sth	r2,40(r17)
            sSyncManInPar.u16SmEventMissedCounter = sSyncManOutPar.u16SmEventMissedCounter;
   212d0:	88c00a0b 	ldhu	r3,40(r17)
   212d4:	008000f4 	movhi	r2,3
   212d8:	10e32b0d 	sth	r3,-29524(r2)
        bEcatFirstOutputsReceived = TRUE;
   212dc:	00800044 	movi	r2,1
   212e0:	d0a16305 	stb	r2,-31348(gp)
        if ( bEcatOutputUpdateRunning )
   212e4:	d0a16383 	ldbu	r2,-31346(gp)
   212e8:	10003326 	beq	r2,zero,213b8 <PDI_Isr+0x18c>
            PDO_OutputMapping();
   212ec:	0020e800 	call	20e80 <PDO_OutputMapping>
        if (sSyncManOutPar.u16SyncType == SYNCTYPE_SM_SYNCHRON)
   212f0:	8880008b 	ldhu	r2,2(r17)
   212f4:	10800058 	cmpnei	r2,r2,1
   212f8:	1000011e 	bne	r2,zero,21300 <PDI_Isr+0xd4>
            ECAT_Application();
   212fc:	00210900 	call	21090 <ECAT_Application>
    if ( (bEcatInputUpdateRunning == TRUE) && (nPdInputSize > 0)
   21300:	d0a16343 	ldbu	r2,-31347(gp)
   21304:	10800058 	cmpnei	r2,r2,1
   21308:	1000091e 	bne	r2,zero,21330 <PDI_Isr+0x104>
   2130c:	d0a1588b 	ldhu	r2,-31390(gp)
   21310:	10000726 	beq	r2,zero,21330 <PDI_Isr+0x104>
       && ((sSyncManInPar.u16SyncType == SYNCTYPE_SM_SYNCHRON) || (sSyncManInPar.u16SyncType == SYNCTYPE_SM2_SYNCHRON))
   21314:	008000f4 	movhi	r2,3
   21318:	10a3218b 	ldhu	r2,-29562(r2)
   2131c:	10c00060 	cmpeqi	r3,r2,1
   21320:	1800021e 	bne	r3,zero,2132c <PDI_Isr+0x100>
   21324:	10800898 	cmpnei	r2,r2,34
   21328:	1000011e 	bne	r2,zero,21330 <PDI_Isr+0x104>
        PDO_InputMapping();
   2132c:	0020d640 	call	20d64 <PDO_InputMapping>
    ALEvent = HW_GetALEventRegister_Isr();
   21330:	00205b80 	call	205b8 <HW_GetALEventRegister_Isr>
   21334:	1021883a 	mov	r16,r2
    if ( ALEvent & PROCESS_OUTPUT_EVENT )
   21338:	8081000c 	andi	r2,r16,1024
   2133c:	10001126 	beq	r2,zero,21384 <PDI_Isr+0x158>
        sSyncManOutPar.u16CycleExceededCounter++;
   21340:	88800a8b 	ldhu	r2,42(r17)
            HW_EscReadByteIsr(u8dummy,nEscAddrOutputData);
   21344:	d161558b 	ldhu	r5,-31402(gp)
        sSyncManInPar.u16CycleExceededCounter = sSyncManOutPar.u16CycleExceededCounter;
   21348:	00c000f4 	movhi	r3,3
        sSyncManOutPar.u16CycleExceededCounter++;
   2134c:	10800044 	addi	r2,r2,1
            HW_EscReadByteIsr(u8dummy,nEscAddrOutputData);
   21350:	01800044 	movi	r6,1
   21354:	d12153c4 	addi	r4,gp,-31409
        sSyncManOutPar.u16CycleExceededCounter++;
   21358:	88800a8d 	sth	r2,42(r17)
        sSyncManInPar.u16CycleExceededCounter = sSyncManOutPar.u16CycleExceededCounter;
   2135c:	18a32b8d 	sth	r2,-29522(r3)
            HW_EscReadByteIsr(u8dummy,nEscAddrOutputData);
   21360:	00206580 	call	20658 <HW_EscReadIsr>
            HW_EscReadByteIsr(u8dummy,(nEscAddrOutputData+nPdOutputSize-1));
   21364:	d161558b 	ldhu	r5,-31402(gp)
   21368:	d0a1580b 	ldhu	r2,-31392(gp)
   2136c:	01800044 	movi	r6,1
   21370:	d12153c4 	addi	r4,gp,-31409
   21374:	288b883a 	add	r5,r5,r2
   21378:	297fffc4 	addi	r5,r5,-1
   2137c:	297fffcc 	andi	r5,r5,65535
   21380:	00206580 	call	20658 <HW_EscReadIsr>
    if (ALEvent & SYNC0_EVENT)
   21384:	8400010c 	andi	r16,r16,4
   21388:	803fb51e 	bne	r16,zero,21260 <PDI_Isr+0x34>
    if (SyncAcknowledgePending)
   2138c:	94803fcc 	andi	r18,r18,255
   21390:	903fb41e 	bne	r18,zero,21264 <PDI_Isr+0x38>
    COE_UpdateSyncErrorStatus();
   21394:	00208680 	call	20868 <COE_UpdateSyncErrorStatus>
}
   21398:	dfc00417 	ldw	ra,16(sp)
   2139c:	dc800317 	ldw	r18,12(sp)
   213a0:	dc400217 	ldw	r17,8(sp)
   213a4:	dc000117 	ldw	r16,4(sp)
   213a8:	dec00504 	addi	sp,sp,20
   213ac:	f800283a 	ret
        SyncAcknowledgePending = TRUE;
   213b0:	04800044 	movi	r18,1
   213b4:	003fb806 	br	21298 <PDI_Isr+0x6c>
            HW_EscReadByteIsr(u8dummy,nEscAddrOutputData);
   213b8:	d161558b 	ldhu	r5,-31402(gp)
   213bc:	01800044 	movi	r6,1
   213c0:	d12153c4 	addi	r4,gp,-31409
   213c4:	00206580 	call	20658 <HW_EscReadIsr>
            HW_EscReadByteIsr(u8dummy,(nEscAddrOutputData+nPdOutputSize-1));
   213c8:	d0a1580b 	ldhu	r2,-31392(gp)
   213cc:	d161558b 	ldhu	r5,-31402(gp)
   213d0:	01800044 	movi	r6,1
   213d4:	d12153c4 	addi	r4,gp,-31409
   213d8:	288b883a 	add	r5,r5,r2
   213dc:	297fffc4 	addi	r5,r5,-1
   213e0:	297fffcc 	andi	r5,r5,65535
   213e4:	00206580 	call	20658 <HW_EscReadIsr>
   213e8:	003fc106 	br	212f0 <PDI_Isr+0xc4>

000213ec <MainLoop>:
    if(bInitFinished == FALSE)
   213ec:	d0a13b03 	ldbu	r2,-31508(gp)
   213f0:	10003226 	beq	r2,zero,214bc <MainLoop+0xd0>
        if (
   213f4:	d0a15b43 	ldbu	r2,-31379(gp)
{
   213f8:	deffff04 	addi	sp,sp,-4
   213fc:	dfc00015 	stw	ra,0(sp)
          && !bDcSyncActive                                               /* DC-Synchronous */
   21400:	d0e16283 	ldbu	r3,-31350(gp)
        if (
   21404:	10000e1e 	bne	r2,zero,21440 <MainLoop+0x54>
          && !bDcSyncActive                                               /* DC-Synchronous */
   21408:	18c03fcc 	andi	r3,r3,255
   2140c:	18001826 	beq	r3,zero,21470 <MainLoop+0x84>
        if (u32CheckForDcOverrunCnt >= CHECK_DC_OVERRUN_IN_MS)
   21410:	d0a13717 	ldw	r2,-31524(gp)
   21414:	1083e830 	cmpltui	r2,r2,4000
   21418:	1000011e 	bne	r2,zero,21420 <MainLoop+0x34>
            COE_SyncTimeStamp();
   2141c:	002075c0 	call	2075c <COE_SyncTimeStamp>
        ECAT_Main();
   21420:	00239ec0 	call	239ec <ECAT_Main>
       COE_Main();
   21424:	0020ba00 	call	20ba0 <COE_Main>
       CheckIfEcatError();
   21428:	002364c0 	call	2364c <CheckIfEcatError>
    if (pAPPL_MainLoop != NULL)
   2142c:	d0a14117 	ldw	r2,-31484(gp)
   21430:	10001f26 	beq	r2,zero,214b0 <MainLoop+0xc4>
}
   21434:	dfc00017 	ldw	ra,0(sp)
   21438:	dec00104 	addi	sp,sp,4
        pAPPL_MainLoop();
   2143c:	1000683a 	jmp	r2
          && !bDcSyncActive                                               /* DC-Synchronous */
   21440:	d0a16303 	ldbu	r2,-31348(gp)
   21444:	10c4b03a 	or	r2,r2,r3
   21448:	10803fcc 	andi	r2,r2,255
   2144c:	103ff01e 	bne	r2,zero,21410 <MainLoop+0x24>
             ECAT_Application();
   21450:	00210900 	call	21090 <ECAT_Application>
             if ( (bEcatInputUpdateRunning  == TRUE) && (nPdInputSize > 0))
   21454:	d0a16343 	ldbu	r2,-31347(gp)
   21458:	10800058 	cmpnei	r2,r2,1
   2145c:	103fec1e 	bne	r2,zero,21410 <MainLoop+0x24>
   21460:	d0a1588b 	ldhu	r2,-31390(gp)
   21464:	103fea26 	beq	r2,zero,21410 <MainLoop+0x24>
                PDO_InputMapping();
   21468:	0020d640 	call	20d64 <PDO_InputMapping>
   2146c:	003fe806 	br	21410 <MainLoop+0x24>
                UINT16 ALEvent = HW_GetALEventRegister();
   21470:	00206180 	call	20618 <HW_GetALEventRegister>
                if ( ALEvent & PROCESS_OUTPUT_EVENT )
   21474:	10c1000c 	andi	r3,r2,1024
   21478:	18000626 	beq	r3,zero,21494 <MainLoop+0xa8>
                    bEcatFirstOutputsReceived = TRUE;
   2147c:	00800044 	movi	r2,1
   21480:	d0a16305 	stb	r2,-31348(gp)
                    if ( bEcatOutputUpdateRunning )
   21484:	d0a16383 	ldbu	r2,-31346(gp)
   21488:	103ff126 	beq	r2,zero,21450 <MainLoop+0x64>
                        PDO_OutputMapping();
   2148c:	0020e800 	call	20e80 <PDO_OutputMapping>
   21490:	003fef06 	br	21450 <MainLoop+0x64>
                else if ( nPdOutputSize == 0 )
   21494:	d0e1580b 	ldhu	r3,-31392(gp)
   21498:	183fed1e 	bne	r3,zero,21450 <MainLoop+0x64>
                    if ( ALEvent & PROCESS_INPUT_EVENT )
   2149c:	1082000c 	andi	r2,r2,2048
   214a0:	103feb26 	beq	r2,zero,21450 <MainLoop+0x64>
                        bEcatFirstOutputsReceived = TRUE;
   214a4:	00800044 	movi	r2,1
   214a8:	d0a16305 	stb	r2,-31348(gp)
   214ac:	003fe806 	br	21450 <MainLoop+0x64>
}
   214b0:	dfc00017 	ldw	ra,0(sp)
   214b4:	dec00104 	addi	sp,sp,4
   214b8:	f800283a 	ret
   214bc:	f800283a 	ret

000214c0 <ESC_EepromAccess>:
 \brief        Controller (switch BIG_ENDIAN_FORMAT set) the data has to be swapped outside
 \brief        of this function)
*////////////////////////////////////////////////////////////////////////////////////////

UINT16 ESC_EepromAccess(UINT32 wordaddress, UINT16 wordsize, UINT16 MBXMEM *pData, UINT8 access)
{
   214c0:	defff404 	addi	sp,sp,-48
   214c4:	dd000615 	stw	r20,24(sp)
   214c8:	dcc00515 	stw	r19,20(sp)
   214cc:	d9000015 	stw	r4,0(sp)
   214d0:	3029883a 	mov	r20,r6
    UINT8 RetryCnt = MAX_CMD_RETIRES; //Maximum number of retries (evaluated in case of an Acknowledge Error)

    UINT16 nConfig;
    VARVOLATILE UINT16 nControl;

    HW_EscReadWord(nConfig,ESC_EEPROM_CONFIG_OFFSET);
   214d4:	d9000104 	addi	r4,sp,4
   214d8:	01800084 	movi	r6,2
{
   214dc:	2827883a 	mov	r19,r5
    HW_EscReadWord(nConfig,ESC_EEPROM_CONFIG_OFFSET);
   214e0:	01414004 	movi	r5,1280
{
   214e4:	dfc00b15 	stw	ra,44(sp)
   214e8:	dd800815 	stw	r22,32(sp)
   214ec:	dc000215 	stw	r16,8(sp)
   214f0:	382d883a 	mov	r22,r7
   214f4:	3821883a 	mov	r16,r7
   214f8:	df000a15 	stw	fp,40(sp)
   214fc:	ddc00915 	stw	r23,36(sp)
   21500:	dd400715 	stw	r21,28(sp)
   21504:	dc800415 	stw	r18,16(sp)
   21508:	dc400315 	stw	r17,12(sp)
    HW_EscReadWord(nConfig,ESC_EEPROM_CONFIG_OFFSET);
   2150c:	00205e00 	call	205e0 <HW_EscRead>
    HW_EscReadWord(nControl, ESC_EEPROM_CONTROL_OFFSET);
   21510:	01800084 	movi	r6,2
   21514:	01414084 	movi	r5,1282
   21518:	d9000184 	addi	r4,sp,6
   2151c:	00205e00 	call	205e0 <HW_EscRead>



    if ( nConfig & ESC_EEPROM_ASSIGN_TO_PDI_MASK )
   21520:	d880010b 	ldhu	r2,4(sp)
   21524:	1080004c 	andi	r2,r2,1
   21528:	10006926 	beq	r2,zero,216d0 <ESC_EepromAccess+0x210>
    {
        /* register 0x500.0 is set (should be written by the master before sending
        the state transition request to PREOP),we have access to the EEPROM */
        UINT16 step = 1; /* we write always only 1 word with one write access */

        if ( access == ESC_RD )
   2152c:	84003fcc 	andi	r16,r16,255
   21530:	84000098 	cmpnei	r16,r16,2
   21534:	1023883a 	mov	r17,r2
   21538:	8000041e 	bne	r16,zero,2154c <ESC_EepromAccess+0x8c>
        {
            /* read access requested, we have to check if we read 2 (register 0x502.6=0)
            or 4 words (register 0x502.6=1) with one access */
            if ( nControl & ESC_EEPROM_SUPPORTED_READBYTES_MASK )
   2153c:	d880018b 	ldhu	r2,6(sp)
   21540:	1080100c 	andi	r2,r2,64
   21544:	10002126 	beq	r2,zero,215cc <ESC_EepromAccess+0x10c>
            {
                step = 4; /* we get 4 words with one read access */
   21548:	04400104 	movi	r17,4
            }
            else
            {
                if ( access == ESC_RD )
                {
                    UINT16 u16BytesToCopy = (step << 1);
   2154c:	882e907a 	slli	r23,r17,1
        nConfig = ESC_EEPROM_LOCKED_BY_PDI_MASK;
   21550:	00804004 	movi	r2,256
        HW_EscWriteWord(nConfig,ESC_EEPROM_CONFIG_OFFSET);
   21554:	01800084 	movi	r6,2
   21558:	01414004 	movi	r5,1280
   2155c:	d9000104 	addi	r4,sp,4
            if ( access == ESC_RD )
   21560:	b5803fcc 	andi	r22,r22,255
        nConfig = ESC_EEPROM_LOCKED_BY_PDI_MASK;
   21564:	d880010d 	sth	r2,4(sp)
        for (i = 0; i < wordsize;)
   21568:	0025883a 	mov	r18,zero
        HW_EscWriteWord(nConfig,ESC_EEPROM_CONFIG_OFFSET);
   2156c:	00206640 	call	20664 <HW_EscWrite>
        for (i = 0; i < wordsize;)
   21570:	9d7fffcc 	andi	r21,r19,65535
                if ( access == ESC_RD )
   21574:	b7000098 	cmpnei	fp,r22,2
        for (i = 0; i < wordsize;)
   21578:	943fffcc 	andi	r16,r18,65535
   2157c:	85401536 	bltu	r16,r21,215d4 <ESC_EepromAccess+0x114>
    UINT16 u16RetErr = 0;
   21580:	0021883a 	mov	r16,zero
    }

    /* clear EEPROM control register 0x500 */
    nConfig = 0;

    HW_EscWriteWord(nConfig, ESC_EEPROM_CONFIG_OFFSET);
   21584:	01800084 	movi	r6,2
   21588:	01414004 	movi	r5,1280
   2158c:	d9000104 	addi	r4,sp,4
    nConfig = 0;
   21590:	d800010d 	sth	zero,4(sp)
    HW_EscWriteWord(nConfig, ESC_EEPROM_CONFIG_OFFSET);
   21594:	00206640 	call	20664 <HW_EscWrite>
    return u16RetErr;
}
   21598:	8005883a 	mov	r2,r16
   2159c:	dfc00b17 	ldw	ra,44(sp)
   215a0:	df000a17 	ldw	fp,40(sp)
   215a4:	ddc00917 	ldw	r23,36(sp)
   215a8:	dd800817 	ldw	r22,32(sp)
   215ac:	dd400717 	ldw	r21,28(sp)
   215b0:	dd000617 	ldw	r20,24(sp)
   215b4:	dcc00517 	ldw	r19,20(sp)
   215b8:	dc800417 	ldw	r18,16(sp)
   215bc:	dc400317 	ldw	r17,12(sp)
   215c0:	dc000217 	ldw	r16,8(sp)
   215c4:	dec00c04 	addi	sp,sp,48
   215c8:	f800283a 	ret
                step = 2; /* we get 2 words with one read access */
   215cc:	04400084 	movi	r17,2
   215d0:	003fde06 	br	2154c <ESC_EepromAccess+0x8c>
            HW_EscWrite((MEM_ADDR *) &wordaddress, ESC_EEPROM_ADDRESS_OFFSET, 4);
   215d4:	01800104 	movi	r6,4
   215d8:	01414104 	movi	r5,1284
   215dc:	d809883a 	mov	r4,sp
   215e0:	00206640 	call	20664 <HW_EscWrite>
            if ( access == ESC_RD )
   215e4:	b0800098 	cmpnei	r2,r22,2
   215e8:	10001b1e 	bne	r2,zero,21658 <ESC_EepromAccess+0x198>
                nControl = ESC_EEPROM_CMD_READ_MASK;
   215ec:	00804004 	movi	r2,256
                HW_EscWriteWord(nControl, ESC_EEPROM_CONTROL_OFFSET);
   215f0:	01800084 	movi	r6,2
   215f4:	01414084 	movi	r5,1282
   215f8:	d9000184 	addi	r4,sp,6
                nControl = SWAPWORD(ESC_EEPROM_CMD_WRITE_MASK);
   215fc:	d880018d 	sth	r2,6(sp)
                HW_EscWriteWord(nControl, ESC_EEPROM_CONTROL_OFFSET);
   21600:	00206640 	call	20664 <HW_EscWrite>
                HW_EscReadWord(nControl, ESC_EEPROM_CONTROL_OFFSET);
   21604:	01800084 	movi	r6,2
   21608:	01414084 	movi	r5,1282
   2160c:	d9000184 	addi	r4,sp,6
   21610:	00205e00 	call	205e0 <HW_EscRead>
            while ( nControl & (ESC_EEPROM_BUSY_MASK));
   21614:	d880018b 	ldhu	r2,6(sp)
   21618:	10bfffcc 	andi	r2,r2,65535
   2161c:	10a0001c 	xori	r2,r2,32768
   21620:	10a00004 	addi	r2,r2,-32768
   21624:	103ff716 	blt	r2,zero,21604 <ESC_EepromAccess+0x144>
            HW_EscReadWord(nControl, ESC_EEPROM_CONTROL_OFFSET);
   21628:	01800084 	movi	r6,2
   2162c:	01414084 	movi	r5,1282
   21630:	d9000184 	addi	r4,sp,6
   21634:	00205e00 	call	205e0 <HW_EscRead>
            if ( nControl & ESC_EEPROM_ERROR_MASK )
   21638:	d880018b 	ldhu	r2,6(sp)
   2163c:	109e000c 	andi	r2,r2,30720
   21640:	10000c26 	beq	r2,zero,21674 <ESC_EepromAccess+0x1b4>
                if(!(nControl & ESC_EEPROM_ERROR_CMD_ACK) && (RetryCnt != 0))
   21644:	d880018b 	ldhu	r2,6(sp)
   21648:	1088000c 	andi	r2,r2,8192
   2164c:	1000141e 	bne	r2,zero,216a0 <ESC_EepromAccess+0x1e0>
                    u16RetErr =  ALSTATUSCODE_EE_ERROR;
   21650:	04001444 	movi	r16,81
   21654:	003fcb06 	br	21584 <ESC_EepromAccess+0xc4>
                HW_EscWriteWord(pData[i],ESC_EEPROM_DATA_OFFSET);
   21658:	8008907a 	slli	r4,r16,1
   2165c:	01800084 	movi	r6,2
   21660:	01414204 	movi	r5,1288
   21664:	a109883a 	add	r4,r20,r4
   21668:	00206640 	call	20664 <HW_EscWrite>
                nControl = SWAPWORD(ESC_EEPROM_CMD_WRITE_MASK);
   2166c:	00808004 	movi	r2,512
   21670:	003fdf06 	br	215f0 <ESC_EepromAccess+0x130>
                if ( access == ESC_RD )
   21674:	e0000a1e 	bne	fp,zero,216a0 <ESC_EepromAccess+0x1e0>
                    if((u16WordOffset + step) > wordsize)
   21678:	88bfffcc 	andi	r2,r17,65535
   2167c:	8085883a 	add	r2,r16,r2
   21680:	a880100e 	bge	r21,r2,216c4 <ESC_EepromAccess+0x204>
                        u16BytesToCopy = (wordsize - u16WordOffset) << 1;
   21684:	9c8dc83a 	sub	r6,r19,r18
   21688:	300c907a 	slli	r6,r6,1
                    HW_EscRead((MEM_ADDR *) &pData[i], ESC_EEPROM_DATA_OFFSET, u16BytesToCopy);
   2168c:	8008907a 	slli	r4,r16,1
   21690:	31bfffcc 	andi	r6,r6,65535
   21694:	01414204 	movi	r5,1288
   21698:	a109883a 	add	r4,r20,r4
   2169c:	00205e00 	call	205e0 <HW_EscRead>
            if(!(nControl & ESC_EEPROM_ERROR_MASK))
   216a0:	d880018b 	ldhu	r2,6(sp)
   216a4:	109e000c 	andi	r2,r2,30720
   216a8:	1000081e 	bne	r2,zero,216cc <ESC_EepromAccess+0x20c>
                wordaddress += step;
   216ac:	d8800017 	ldw	r2,0(sp)
   216b0:	88ffffcc 	andi	r3,r17,65535
                u16WordOffset +=step;
   216b4:	9465883a 	add	r18,r18,r17
                wordaddress += step;
   216b8:	10c5883a 	add	r2,r2,r3
   216bc:	d8800015 	stw	r2,0(sp)
                i += step;
   216c0:	003fad06 	br	21578 <ESC_EepromAccess+0xb8>
                    UINT16 u16BytesToCopy = (step << 1);
   216c4:	b80d883a 	mov	r6,r23
   216c8:	003ff006 	br	2168c <ESC_EepromAccess+0x1cc>
                    while(i32TimeoutTicks > 0)
   216cc:	003fff06 	br	216cc <ESC_EepromAccess+0x20c>
        u16RetErr = ALSTATUSCODE_EE_NOACCESS;
   216d0:	04001404 	movi	r16,80
   216d4:	003fab06 	br	21584 <ESC_EepromAccess+0xc4>

000216d8 <ESC_EepromWriteCRC>:

 \brief        This function recalculates the EEPROM CRC and writes the updated value to EEPROM.
            After writing the ESC Config Area a device restart is required!
 *////////////////////////////////////////////////////////////////////////////////////////
UINT16 ESC_EepromWriteCRC(void)
{
   216d8:	defffa04 	addi	sp,sp,-24
    UINT16 u16Return = ALSTATUSCODE_UNSPECIFIEDERROR;
    UINT16 EscCfgData[8];
    UINT16 u16Crc = 0x00FF;
   216dc:	00803fc4 	movi	r2,255
    UINT16 i,j;

    
    u16Return = ESC_EepromAccess(0,7,(UINT16 *)EscCfgData,ESC_RD);
   216e0:	01c00084 	movi	r7,2
   216e4:	d9800104 	addi	r6,sp,4
   216e8:	014001c4 	movi	r5,7
   216ec:	0009883a 	mov	r4,zero
{
   216f0:	dfc00515 	stw	ra,20(sp)
    UINT16 u16Crc = 0x00FF;
   216f4:	d880008d 	sth	r2,2(sp)
    u16Return = ESC_EepromAccess(0,7,(UINT16 *)EscCfgData,ESC_RD);
   216f8:	00214c00 	call	214c0 <ESC_EepromAccess>
    if(u16Return == 0)
   216fc:	10ffffcc 	andi	r3,r2,65535
   21700:	18001c1e 	bne	r3,zero,21774 <ESC_EepromWriteCRC+0x9c>
   21704:	d880008b 	ldhu	r2,2(sp)
    {
        UINT8 *pData = (UINT8 *)EscCfgData;

        for(i = 0; i < 14; i++ )
        {
            u16Crc ^= pData[i];
   21708:	d9000104 	addi	r4,sp,4
   2170c:	20c9883a 	add	r4,r4,r3
   21710:	21000003 	ldbu	r4,0(r4)
   21714:	01400204 	movi	r5,8
   21718:	2084f03a 	xor	r2,r4,r2

            for(j=0; j<8; j++ )
            {
                if( u16Crc & 0x80 )
   2171c:	1100200c 	andi	r4,r2,128
   21720:	20001726 	beq	r4,zero,21780 <ESC_EepromWriteCRC+0xa8>
   21724:	10bfffcc 	andi	r2,r2,65535
                {
                    u16Crc = (u16Crc<<1) ^ 0x07;
   21728:	1004907a 	slli	r2,r2,1
   2172c:	108001dc 	xori	r2,r2,7
            for(j=0; j<8; j++ )
   21730:	293fffc4 	addi	r4,r5,-1
   21734:	200b883a 	mov	r5,r4
   21738:	213fffcc 	andi	r4,r4,65535
   2173c:	203ff71e 	bne	r4,zero,2171c <ESC_EepromWriteCRC+0x44>
        for(i = 0; i < 14; i++ )
   21740:	18c00044 	addi	r3,r3,1
   21744:	19000398 	cmpnei	r4,r3,14
   21748:	203fef1e 	bne	r4,zero,21708 <ESC_EepromWriteCRC+0x30>
                }
            }
        }

        /*only low Byte shall be written*/
        u16Crc &= 0x00FF;
   2174c:	10803fcc 	andi	r2,r2,255

        /*write new calculated Crc to Esc Config area*/
        u16Return = ESC_EepromAccess(7,1,&u16Crc,ESC_WR);
   21750:	01c00104 	movi	r7,4
   21754:	d9800084 	addi	r6,sp,2
   21758:	01400044 	movi	r5,1
   2175c:	010001c4 	movi	r4,7
        u16Crc &= 0x00FF;
   21760:	d880008d 	sth	r2,2(sp)
        u16Return = ESC_EepromAccess(7,1,&u16Crc,ESC_WR);
   21764:	00214c00 	call	214c0 <ESC_EepromAccess>
        if(u16Return == 0)
   21768:	10ffffcc 	andi	r3,r2,65535
   2176c:	1800011e 	bne	r3,zero,21774 <ESC_EepromWriteCRC+0x9c>
        {
            u16Return =  ALSTATUSCODE_WAITFORCOLDSTART;
   21770:	00800804 	movi	r2,32
        }
    }

    return u16Return;
}
   21774:	dfc00517 	ldw	ra,20(sp)
   21778:	dec00604 	addi	sp,sp,24
   2177c:	f800283a 	ret
                    u16Crc <<= 1;
   21780:	1004907a 	slli	r2,r2,1
   21784:	003fea06 	br	21730 <ESC_EepromWriteCRC+0x58>

00021788 <COE_Init>:
 \brief    This function intialize the CoE Interface.
*////////////////////////////////////////////////////////////////////////////////////////

void COE_Init(void)
{
    pCoeSendStored = 0;
   21788:	d0214a15 	stw	zero,-31448(gp)
    nSdoInfoFragmentsLeft = 0;
   2178c:	d021768d 	sth	zero,-31270(gp)
}
   21790:	f800283a 	ret

00021794 <COE_ServiceInd>:

UINT8 COE_ServiceInd(TCOEMBX MBXMEM *pCoeMbx)
{
    UINT8 result = 0;

    switch ((pCoeMbx->CoeHeader & COEHEADER_COESERVICEMASK) >> COEHEADER_COESERVICESHIFT)
   21794:	2080018b 	ldhu	r2,6(r4)
   21798:	1004d33a 	srli	r2,r2,12
   2179c:	10c00228 	cmpgeui	r3,r2,8
   217a0:	1800081e 	bne	r3,zero,217c4 <COE_ServiceInd+0x30>
   217a4:	10c000e8 	cmpgeui	r3,r2,3
   217a8:	18000a1e 	bne	r3,zero,217d4 <COE_ServiceInd+0x40>
   217ac:	10c00060 	cmpeqi	r3,r2,1
   217b0:	1800081e 	bne	r3,zero,217d4 <COE_ServiceInd+0x40>
   217b4:	108000a0 	cmpeqi	r2,r2,2
   217b8:	1000051e 	bne	r2,zero,217d0 <COE_ServiceInd+0x3c>
   217bc:	00800144 	movi	r2,5
   217c0:	f800283a 	ret
   217c4:	10800220 	cmpeqi	r2,r2,8
   217c8:	103ffc26 	beq	r2,zero,217bc <COE_ServiceInd+0x28>
        result = SDOS_SdoInd( (TINITSDOMBX MBXMEM *) pCoeMbx );
        break;

    case COESERVICE_SDOINFO:
        /* SDO-Information Request received, call SDOS_SdoInfoInd to process the SDO-Request */
        result = SDOS_SdoInfoInd( (TSDOINFORMATION MBXMEM *) pCoeMbx );
   217cc:	00267541 	jmpi	26754 <SDOS_SdoInfoInd>
        result = SDOS_SdoInd( (TINITSDOMBX MBXMEM *) pCoeMbx );
   217d0:	0025cd81 	jmpi	25cd8 <SDOS_SdoInd>
    case COESERVICE_TXPDO:
    case COESERVICE_RXPDO:
    case COESERVICE_TXPDOREMREQ:
    case COESERVICE_RXPDOREMREQ:
        /* these CoE services are not supported yet */
        result = MBXERR_SERVICENOTSUPPORTED;
   217d4:	00800104 	movi	r2,4
    default:
        result = MBXERR_INVALIDHEADER;
        break;
    }
    return result;
}
   217d8:	f800283a 	ret

000217dc <COE_ContinueInd>:
 \brief  be put in the send mailbox.
*////////////////////////////////////////////////////////////////////////////////////////

UINT8 COE_ContinueInd(TMBX MBXMEM * pMbx)
{
    if (pCoeSendStored)
   217dc:	d1214a17 	ldw	r4,-31448(gp)
{
   217e0:	deffff04 	addi	sp,sp,-4
   217e4:	dfc00015 	stw	ra,0(sp)
    if (pCoeSendStored)
   217e8:	20000926 	beq	r4,zero,21810 <COE_ContinueInd+0x34>
    {
        /* send the stored CoE service which could not be sent before */
/*ECATCHANGE_START(V5.13) COE8*/
        if (MBX_MailboxSendReq(pCoeSendStored, COE_SERVICE) == 0)
   217ec:	01400084 	movi	r5,2
   217f0:	00242640 	call	24264 <MBX_MailboxSendReq>
   217f4:	10803fcc 	andi	r2,r2,255
   217f8:	1000011e 	bne	r2,zero,21800 <COE_ContinueInd+0x24>
        {
            pCoeSendStored = 0;
   217fc:	d0214a15 	stw	zero,-31448(gp)
            /* call SDOS_SdoInfoInd to generate and send the next fragment */
            SDOS_SdoInfoInd( (TSDOINFORMATION MBXMEM *) pMbx );
        }
    }

    return 0;
   21800:	0005883a 	mov	r2,zero
}
   21804:	dfc00017 	ldw	ra,0(sp)
   21808:	dec00104 	addi	sp,sp,4
   2180c:	f800283a 	ret
        pMbx = (TMBX MBXMEM *) APPL_AllocMailboxBuffer(SIZEOF(TMBX));
   21810:	01002004 	movi	r4,128
   21814:	002704c0 	call	2704c <malloc>
   21818:	1009883a 	mov	r4,r2
        if (pMbx == NULL)
   2181c:	10000726 	beq	r2,zero,2183c <COE_ContinueInd+0x60>
            MBXMEMCPY(pMbx, aSdoInfoHeader, SDO_INFO_HEADER_BYTE_SIZE);
   21820:	014000f4 	movhi	r5,3
   21824:	01800384 	movi	r6,14
   21828:	29634304 	addi	r5,r5,-29428
   2182c:	00273540 	call	27354 <memcpy>
   21830:	1009883a 	mov	r4,r2
            SDOS_SdoInfoInd( (TSDOINFORMATION MBXMEM *) pMbx );
   21834:	00267540 	call	26754 <SDOS_SdoInfoInd>
   21838:	003ff106 	br	21800 <COE_ContinueInd+0x24>
            return MBXERR_NOMOREMEMORY;
   2183c:	008001c4 	movi	r2,7
   21840:	003ff006 	br	21804 <COE_ContinueInd+0x28>

00021844 <FOE_Init>:
*////////////////////////////////////////////////////////////////////////////////////////

void FOE_Init(void)
{
    /* no file transmission sequence is running */
    u16FileAccessState    = FOE_READY;
   21844:	d0214d0d 	sth	zero,-31436(gp)
    /* initialize the expected packet number */
    u32PacketNo = 0;
   21848:	d0215015 	stw	zero,-31424(gp)
    pFoeSendStored = NULL;
   2184c:	d0214c15 	stw	zero,-31440(gp)
}
   21850:	f800283a 	ret

00021854 <FOE_ServiceInd>:
UINT8 FOE_ServiceInd(TFOEMBX MBXMEM * pFoeInd)
{
    /* initialize the result of the service checking */
    UINT16 nextState = ECAT_FOE_ERRCODE_ILLEGAL;
    /* dataSize contains the size of the file data */
    UINT16 dataSize = SWAPWORD(pFoeInd->MbxHeader.Length) - FOE_HEADER_SIZE;
   21854:	2080000b 	ldhu	r2,0(r4)
   21858:	117ffe84 	addi	r5,r2,-6


    /* it has to be checked if the mailbox protocol is correct, the sent mailbox data length has to
       great enough for the service header of the FoE service */
    if ( SWAPWORD(pFoeInd->MbxHeader.Length) < FOE_HEADER_SIZE )
   2185c:	10bfffcc 	andi	r2,r2,65535
   21860:	108001b0 	cmpltui	r2,r2,6
   21864:	1000e01e 	bne	r2,zero,21be8 <FOE_ServiceInd+0x394>
    {
        return MBXERR_SIZETOOSHORT;
    }

    switch ( SWAPWORD(pFoeInd->FoeHeader.OpCode) )
   21868:	2080018b 	ldhu	r2,6(r4)
{
   2186c:	defffe04 	addi	sp,sp,-8
   21870:	dc000015 	stw	r16,0(sp)
    switch ( SWAPWORD(pFoeInd->FoeHeader.OpCode) )
   21874:	10bfffc4 	addi	r2,r2,-1
   21878:	10bfffcc 	andi	r2,r2,65535
{
   2187c:	dfc00115 	stw	ra,4(sp)
    switch ( SWAPWORD(pFoeInd->FoeHeader.OpCode) )
   21880:	10c001a8 	cmpgeui	r3,r2,6
   21884:	2021883a 	mov	r16,r4
   21888:	1800c71e 	bne	r3,zero,21ba8 <FOE_ServiceInd+0x354>
   2188c:	100490ba 	slli	r2,r2,2
   21890:	00c000b4 	movhi	r3,2
   21894:	10c7883a 	add	r3,r2,r3
   21898:	18862817 	ldw	r2,6304(r3)
   2189c:	1000683a 	jmp	r2
   218a0:	000218b8 	rdprs	zero,zero,2146
   218a4:	000219b4 	movhi	zero,2150
   218a8:	00021a24 	muli	zero,zero,2152
   218ac:	00021a60 	cmpeqi	zero,zero,2153
   218b0:	00021acc 	andi	zero,zero,2155
   218b4:	00021aec 	andhi	zero,zero,2155
    {
    case ECAT_FOE_OPCODE_RRQ:
        /* file read is requested */
        if ( u16FileAccessState == FOE_READY )
   218b8:	d0a14d0b 	ldhu	r2,-31436(gp)
   218bc:	1000ba1e 	bne	r2,zero,21ba8 <FOE_ServiceInd+0x354>
        {
            UINT32 u32Password = SWAPDWORD((((UINT32)pFoeInd->FoeHeader.Cmd.Password[FOE_COMMAND_LOWWORD]) | ((UINT32)pFoeInd->FoeHeader.Cmd.Password[FOE_COMMAND_HIGHWORD]) << 16));
   218c0:	2080028b 	ldhu	r2,10(r4)
   218c4:	21c0020b 	ldhu	r7,8(r4)
            /* last FoE sequence was finished, call application function */
            nextState = FOE_Read((UINT16 MBXMEM *)pFoeInd->Data, dataSize, (UINT16*)pFoeInd->Data, u32Password);
   218c8:	21800304 	addi	r6,r4,12
            UINT32 u32Password = SWAPDWORD((((UINT32)pFoeInd->FoeHeader.Cmd.Password[FOE_COMMAND_LOWWORD]) | ((UINT32)pFoeInd->FoeHeader.Cmd.Password[FOE_COMMAND_HIGHWORD]) << 16));
   218cc:	1004943a 	slli	r2,r2,16
            nextState = FOE_Read((UINT16 MBXMEM *)pFoeInd->Data, dataSize, (UINT16*)pFoeInd->Data, u32Password);
   218d0:	3009883a 	mov	r4,r6
   218d4:	297fffcc 	andi	r5,r5,65535
   218d8:	11ceb03a 	or	r7,r2,r7
   218dc:	0023b940 	call	23b94 <FOE_Read>

            /* u32LastFileOffset contains the offset of the file which is sent now */
            u32LastFileOffset = 0;

            if (nextState <= FOE_MAXDATA)
   218e0:	10ffffcc 	andi	r3,r2,65535
            u32LastFileOffset = 0;
   218e4:	d0214e15 	stw	zero,-31432(gp)
            if (nextState <= FOE_MAXDATA)
   218e8:	191fe5a8 	cmpgeui	r4,r3,32662
   218ec:	2000241e 	bne	r4,zero,21980 <FOE_ServiceInd+0x12c>
            {
                /* the first data packet shall be sent */
                u32PacketNo    = 1;
   218f0:	01000044 	movi	r4,1
   218f4:	d1215015 	stw	r4,-31424(gp)
                /* u32FileOffset contains the offset of the file which shall be sent when the next FoE ACK is received */
                u32FileOffset = nextState;
   218f8:	d0e14f15 	stw	r3,-31428(gp)
    }

    if ( nextState <= FOE_MAXDATA )
    {
        /* we send DATA and wait for ACK */
        UINT32 d = SWAPDWORD(u32PacketNo);
   218fc:	d0e15017 	ldw	r3,-31424(gp)

        /* store the OpCode in the mailbox buffer */
        pFoeInd->FoeHeader.OpCode           = SWAPWORD(ECAT_FOE_OPCODE_DATA);
   21900:	010000c4 	movi	r4,3
   21904:	8100018d 	sth	r4,6(r16)
        /* store the packet number in the mailbox buffer */
        pFoeInd->FoeHeader.Cmd.PacketNo[FOE_COMMAND_LOWWORD] = ((d & 0x0000FFFF));
   21908:	80c0020d 	sth	r3,8(r16)
        pFoeInd->FoeHeader.Cmd.PacketNo[FOE_COMMAND_HIGHWORD] = ((d & 0xFFFF0000) >> 16);
   2190c:	1806d43a 	srli	r3,r3,16
   21910:	80c0028d 	sth	r3,10(r16)
     
        /* store the size of the mailbox data in the mailbox buffer */
        pFoeInd->MbxHeader.Length           = FOE_HEADER_SIZE + nextState;
   21914:	10c00184 	addi	r3,r2,6
   21918:	80c0000d 	sth	r3,0(r16)

        if ( nextState == u16SendMbxSize - FOE_HEADER_SIZE - MBX_HEADER_SIZE )
   2191c:	d0e16b8b 	ldhu	r3,-31314(gp)
   21920:	10bfffcc 	andi	r2,r2,65535
   21924:	18fffd04 	addi	r3,r3,-12
   21928:	10c09b1e 	bne	r2,r3,21b98 <FOE_ServiceInd+0x344>
        {
            /* packets still following, we wait for an ACK */
            u16FileAccessState = FOE_WAIT_FOR_ACK;
   2192c:	00800044 	movi	r2,1
        }
        else
        {
            /* it was the last Packet, we wait for the last ACK */
            u16FileAccessState = FOE_WAIT_FOR_LAST_ACK;
   21930:	d0a14d0d 	sth	r2,-31436(gp)

        /* the file transmission sequence is finished */
        u16FileAccessState = FOE_READY;
    }

    if ( bBootMode )
   21934:	d0a163c3 	ldbu	r2,-31345(gp)
   21938:	1000a426 	beq	r2,zero,21bcc <FOE_ServiceInd+0x378>
    {
        /* in BOOT mode the mailbox buffer is not sent via the mailbox functions
           because only FoE is allowed in BOOT mode, so we have to include the
            mailbox data link layer counter */
        pFoeInd->MbxHeader.Flags[MBX_OFFS_COUNTER] &= ~MBX_MASK_COUNTER;
        if ( (u8MbxReadCounter & 0x07) == 0 )
   2193c:	d0e16943 	ldbu	r3,-31323(gp)
        pFoeInd->MbxHeader.Flags[MBX_OFFS_COUNTER] &= ~MBX_MASK_COUNTER;
   21940:	8080010b 	ldhu	r2,4(r16)
        if ( (u8MbxReadCounter & 0x07) == 0 )
   21944:	18c001cc 	andi	r3,r3,7
        pFoeInd->MbxHeader.Flags[MBX_OFFS_COUNTER] &= ~MBX_MASK_COUNTER;
   21948:	1083ffcc 	andi	r2,r2,4095
        if ( (u8MbxReadCounter & 0x07) == 0 )
   2194c:	1800021e 	bne	r3,zero,21958 <FOE_ServiceInd+0x104>
        {
            /* counter 0 is not allowed if mailbox data link layer is supported */
            u8MbxReadCounter = 1;
   21950:	00c00044 	movi	r3,1
   21954:	d0e16945 	stb	r3,-31323(gp)
        }
        /* store the counter in the mailbox header */
        pFoeInd->MbxHeader.Flags[MBX_OFFS_COUNTER] |= u8MbxReadCounter << MBX_SHIFT_COUNTER;
   21958:	d0e16943 	ldbu	r3,-31323(gp)
   2195c:	19003fcc 	andi	r4,r3,255
   21960:	2008933a 	slli	r4,r4,12
        /* increment the counter for the next service */
          u8MbxReadCounter++;
   21964:	18c00044 	addi	r3,r3,1
   21968:	d0e16945 	stb	r3,-31323(gp)
        pFoeInd->MbxHeader.Flags[MBX_OFFS_COUNTER] |= u8MbxReadCounter << MBX_SHIFT_COUNTER;
   2196c:	1104b03a 	or	r2,r2,r4
   21970:	8080010d 	sth	r2,4(r16)
        /* call the function to send the mailbox service directly,
           in BOOT mode we can be sure that the send mailbox is empty
           because no parallel services are allowed */
        MBX_CopyToSendMailbox((TMBX MBXMEM *) pFoeInd);
   21974:	8009883a 	mov	r4,r16
   21978:	0023ff00 	call	23ff0 <MBX_CopyToSendMailbox>
   2197c:	00004e06 	br	21ab8 <FOE_ServiceInd+0x264>
            else if (nextState <= FOE_MAXBUSY)
   21980:	18dffee8 	cmpgeui	r3,r3,32763
   21984:	1800681e 	bne	r3,zero,21b28 <FOE_ServiceInd+0x2d4>
                u16FileAccessState = FOE_WAIT_FOR_ACK;
   21988:	00c00044 	movi	r3,1
                u32PacketNo    = 0;
   2198c:	d0215015 	stw	zero,-31424(gp)
                u32FileOffset = 0;
   21990:	d0214f15 	stw	zero,-31428(gp)
                u16FileAccessState = FOE_WAIT_FOR_ACK;
   21994:	d0e14d0d 	sth	r3,-31436(gp)
        pFoeInd->FoeHeader.OpCode                   = SWAPWORD(ECAT_FOE_OPCODE_BUSY);
   21998:	00c00184 	movi	r3,6
        pFoeInd->FoeHeader.Cmd.Busy.Done            = SWAPWORD(nextState-FOE_MAXBUSY_ZERO);
   2199c:	10a01a84 	addi	r2,r2,-32662
        pFoeInd->FoeHeader.OpCode                   = SWAPWORD(ECAT_FOE_OPCODE_BUSY);
   219a0:	80c0018d 	sth	r3,6(r16)
        pFoeInd->FoeHeader.Cmd.Busy.Done            = SWAPWORD(nextState-FOE_MAXBUSY_ZERO);
   219a4:	8080020d 	sth	r2,8(r16)
        pFoeInd->FoeHeader.Cmd.Busy.Entire          = 0;
   219a8:	8000028d 	sth	zero,10(r16)
        pFoeInd->MbxHeader.Length                   = FOE_HEADER_SIZE;
   219ac:	80c0000d 	sth	r3,0(r16)
   219b0:	003fe006 	br	21934 <FOE_ServiceInd+0xe0>
        if ( u16FileAccessState == FOE_READY )
   219b4:	d0a14d0b 	ldhu	r2,-31436(gp)
   219b8:	10007b1e 	bne	r2,zero,21ba8 <FOE_ServiceInd+0x354>
            UINT32 u32Password = SWAPDWORD((((UINT32)pFoeInd->FoeHeader.Cmd.Password[FOE_COMMAND_LOWWORD]) | ((UINT32)pFoeInd->FoeHeader.Cmd.Password[FOE_COMMAND_HIGHWORD]) << 16));
   219bc:	2080028b 	ldhu	r2,10(r4)
   219c0:	2180020b 	ldhu	r6,8(r4)
            nextState = FOE_Write((UINT16 MBXMEM *)pFoeInd->Data, dataSize, u32Password);
   219c4:	297fffcc 	andi	r5,r5,65535
            UINT32 u32Password = SWAPDWORD((((UINT32)pFoeInd->FoeHeader.Cmd.Password[FOE_COMMAND_LOWWORD]) | ((UINT32)pFoeInd->FoeHeader.Cmd.Password[FOE_COMMAND_HIGHWORD]) << 16));
   219c8:	1004943a 	slli	r2,r2,16
            nextState = FOE_Write((UINT16 MBXMEM *)pFoeInd->Data, dataSize, u32Password);
   219cc:	21000304 	addi	r4,r4,12
   219d0:	118cb03a 	or	r6,r2,r6
   219d4:	0023bd00 	call	23bd0 <FOE_Write>
            if ( nextState == 0 )
   219d8:	10ffffcc 	andi	r3,r2,65535
            u32PacketNo    = 0;
   219dc:	d0215015 	stw	zero,-31424(gp)
            if ( nextState == 0 )
   219e0:	18004b1e 	bne	r3,zero,21b10 <FOE_ServiceInd+0x2bc>
                    nextState = FOE_ACK;
   219e4:	009fff44 	movi	r2,32765
        UINT32 d = SWAPDWORD(u32PacketNo);
   219e8:	d0e15017 	ldw	r3,-31424(gp)
        if ( nextState == FOE_ACK )
   219ec:	10bfffcc 	andi	r2,r2,65535
   219f0:	109fff58 	cmpnei	r2,r2,32765
        u32PacketNo++;
   219f4:	19000044 	addi	r4,r3,1
        pFoeInd->FoeHeader.Cmd.PacketNo[FOE_COMMAND_LOWWORD] = ((d & 0x0000FFFF));
   219f8:	80c0020d 	sth	r3,8(r16)
        pFoeInd->FoeHeader.Cmd.PacketNo[FOE_COMMAND_HIGHWORD] = ((d & 0xFFFF0000) >> 16);
   219fc:	1806d43a 	srli	r3,r3,16
        u32PacketNo++;
   21a00:	d1215015 	stw	r4,-31424(gp)
        pFoeInd->FoeHeader.OpCode                   = SWAPWORD(ECAT_FOE_OPCODE_ACK);
   21a04:	01000104 	movi	r4,4
        pFoeInd->FoeHeader.Cmd.PacketNo[FOE_COMMAND_HIGHWORD] = ((d & 0xFFFF0000) >> 16);
   21a08:	80c0028d 	sth	r3,10(r16)
        pFoeInd->MbxHeader.Length                   = SIZEOF(TFOEHEADER);
   21a0c:	00c00184 	movi	r3,6
        pFoeInd->FoeHeader.OpCode                   = SWAPWORD(ECAT_FOE_OPCODE_ACK);
   21a10:	8100018d 	sth	r4,6(r16)
        pFoeInd->MbxHeader.Length                   = SIZEOF(TFOEHEADER);
   21a14:	80c0000d 	sth	r3,0(r16)
        if ( nextState == FOE_ACK )
   21a18:	10006a1e 	bne	r2,zero,21bc4 <FOE_ServiceInd+0x370>
            u16FileAccessState = FOE_WAIT_FOR_DATA;
   21a1c:	00800084 	movi	r2,2
   21a20:	003fc306 	br	21930 <FOE_ServiceInd+0xdc>
        if ( u16FileAccessState == FOE_WAIT_FOR_DATA
   21a24:	d0a14d0b 	ldhu	r2,-31436(gp)
   21a28:	10bffecc 	andi	r2,r2,65531
   21a2c:	10800098 	cmpnei	r2,r2,2
   21a30:	10005d1e 	bne	r2,zero,21ba8 <FOE_ServiceInd+0x354>
            UINT32 u32CmdPacketNo = SWAPDWORD((((UINT32)pFoeInd->FoeHeader.Cmd.PacketNo[FOE_COMMAND_LOWWORD]) | ((UINT32)pFoeInd->FoeHeader.Cmd.PacketNo[FOE_COMMAND_HIGHWORD]) << 16));
   21a34:	2080028b 	ldhu	r2,10(r4)
   21a38:	20c0020b 	ldhu	r3,8(r4)
   21a3c:	1004943a 	slli	r2,r2,16
   21a40:	10c4b03a 	or	r2,r2,r3
            if ( u32CmdPacketNo == u32PacketNo )
   21a44:	d0e15017 	ldw	r3,-31424(gp)
   21a48:	1880551e 	bne	r3,r2,21ba0 <FOE_ServiceInd+0x34c>
                nextState = FOE_Data((UINT16 MBXMEM *)pFoeInd->Data, dataSize);
   21a4c:	297fffcc 	andi	r5,r5,65535
   21a50:	21000304 	addi	r4,r4,12
   21a54:	0023be80 	call	23be8 <FOE_Data>
                if ( nextState == 0 )
   21a58:	10ffffcc 	andi	r3,r2,65535
   21a5c:	003fe006 	br	219e0 <FOE_ServiceInd+0x18c>
        if ( u16FileAccessState == FOE_WAIT_FOR_ACK )
   21a60:	d0a14d0b 	ldhu	r2,-31436(gp)
   21a64:	10c00058 	cmpnei	r3,r2,1
   21a68:	18000e1e 	bne	r3,zero,21aa4 <FOE_ServiceInd+0x250>
            nextState = FOE_Ack( u32FileOffset, (UINT16 MBXMEM *)pFoeInd->Data );
   21a6c:	21400304 	addi	r5,r4,12
   21a70:	d1214f17 	ldw	r4,-31428(gp)
   21a74:	0023c440 	call	23c44 <FOE_Ack>
            u32LastFileOffset = u32FileOffset;
   21a78:	d1214f17 	ldw	r4,-31428(gp)
            if (nextState <= FOE_MAXDATA) 
   21a7c:	10ffffcc 	andi	r3,r2,65535
   21a80:	195fe5a8 	cmpgeui	r5,r3,32662
            u32LastFileOffset = u32FileOffset;
   21a84:	d1214e15 	stw	r4,-31432(gp)
            if (nextState <= FOE_MAXDATA) 
   21a88:	2800241e 	bne	r5,zero,21b1c <FOE_ServiceInd+0x2c8>
                u32FileOffset += nextState;
   21a8c:	1907883a 	add	r3,r3,r4
   21a90:	d0e14f15 	stw	r3,-31428(gp)
                u32PacketNo++;
   21a94:	d0e15017 	ldw	r3,-31424(gp)
   21a98:	18c00044 	addi	r3,r3,1
   21a9c:	d0e15015 	stw	r3,-31424(gp)
    if ( nextState <= FOE_MAXDATA )
   21aa0:	003f9606 	br	218fc <FOE_ServiceInd+0xa8>
        else if ( u16FileAccessState == FOE_WAIT_FOR_LAST_ACK )
   21aa4:	10800118 	cmpnei	r2,r2,4
   21aa8:	10003f1e 	bne	r2,zero,21ba8 <FOE_ServiceInd+0x354>
        APPL_FreeMailboxBuffer(pFoeInd);
   21aac:	8009883a 	mov	r4,r16
        u16FileAccessState = FOE_READY;
   21ab0:	d0214d0d 	sth	zero,-31436(gp)
        APPL_FreeMailboxBuffer(pFoeInd);
   21ab4:	002705c0 	call	2705c <free>
        return 0;
   21ab8:	0005883a 	mov	r2,zero
            pFoeSendStored = (TMBX MBXMEM *) pFoeInd;
        }
    }

    return 0;
}
   21abc:	dfc00117 	ldw	ra,4(sp)
   21ac0:	dc000017 	ldw	r16,0(sp)
   21ac4:	dec00204 	addi	sp,sp,8
   21ac8:	f800283a 	ret
        if ( u16FileAccessState != FOE_READY )
   21acc:	d0a14d0b 	ldhu	r2,-31436(gp)
   21ad0:	10003526 	beq	r2,zero,21ba8 <FOE_ServiceInd+0x354>
            UINT32 u32CmdErrorCode = SWAPDWORD((((UINT32)pFoeInd->FoeHeader.Cmd.ErrorCode[FOE_COMMAND_LOWWORD]) | ((UINT32)pFoeInd->FoeHeader.Cmd.ErrorCode[FOE_COMMAND_HIGHWORD]) << 16));
   21ad4:	8080028b 	ldhu	r2,10(r16)
   21ad8:	2100020b 	ldhu	r4,8(r4)
   21adc:	1004943a 	slli	r2,r2,16
            FOE_Error( u32CmdErrorCode );
   21ae0:	1108b03a 	or	r4,r2,r4
   21ae4:	0023c6c0 	call	23c6c <FOE_Error>
    else if ( nextState < FOE_ERROR )
   21ae8:	003ff006 	br	21aac <FOE_ServiceInd+0x258>
        if ( u16FileAccessState == FOE_WAIT_FOR_ACK
   21aec:	d0a14d0b 	ldhu	r2,-31436(gp)
   21af0:	10c00060 	cmpeqi	r3,r2,1
   21af4:	1800021e 	bne	r3,zero,21b00 <FOE_ServiceInd+0x2ac>
          || u16FileAccessState == FOE_WAIT_FOR_LAST_ACK )
   21af8:	10800118 	cmpnei	r2,r2,4
   21afc:	10002a1e 	bne	r2,zero,21ba8 <FOE_ServiceInd+0x354>
            nextState = FOE_Busy( SWAPWORD(pFoeInd->FoeHeader.Cmd.Busy.Done), u32LastFileOffset, (UINT16 MBXMEM *)pFoeInd->Data );
   21b00:	d1614e17 	ldw	r5,-31432(gp)
   21b04:	8100020b 	ldhu	r4,8(r16)
   21b08:	81800304 	addi	r6,r16,12
   21b0c:	0023c600 	call	23c60 <FOE_Busy>
    if ( nextState <= FOE_MAXDATA )
   21b10:	10ffffcc 	andi	r3,r2,65535
   21b14:	18dfe5a8 	cmpgeui	r3,r3,32662
   21b18:	183f7826 	beq	r3,zero,218fc <FOE_ServiceInd+0xa8>
    else if ( nextState <= FOE_MAXBUSY )
   21b1c:	10ffffcc 	andi	r3,r2,65535
   21b20:	18dffee8 	cmpgeui	r3,r3,32763
   21b24:	183f9c26 	beq	r3,zero,21998 <FOE_ServiceInd+0x144>
    else if ( nextState == FOE_ACK || nextState == FOE_ACKFINISHED )
   21b28:	10e00104 	addi	r3,r2,-32764
   21b2c:	18ffffcc 	andi	r3,r3,65535
   21b30:	18c000a8 	cmpgeui	r3,r3,2
   21b34:	183fac26 	beq	r3,zero,219e8 <FOE_ServiceInd+0x194>
    else if ( nextState < FOE_ERROR )
   21b38:	10ffffcc 	andi	r3,r2,65535
   21b3c:	18e0001c 	xori	r3,r3,32768
   21b40:	18e00004 	addi	r3,r3,-32768
   21b44:	183fd90e 	bge	r3,zero,21aac <FOE_ServiceInd+0x258>
        pFoeInd->FoeHeader.OpCode                    = SWAPWORD(ECAT_FOE_OPCODE_ERR);
   21b48:	00c00144 	movi	r3,5
        pFoeInd->FoeHeader.Cmd.ErrorCode[FOE_COMMAND_LOWWORD] = ((d & 0x0000FFFF));
   21b4c:	8080020d 	sth	r2,8(r16)
        pFoeInd->MbxHeader.Length                   = SIZEOF(TFOEHEADER);
   21b50:	00800184 	movi	r2,6
   21b54:	8080000d 	sth	r2,0(r16)
        pFoeInd->FoeHeader.OpCode                    = SWAPWORD(ECAT_FOE_OPCODE_ERR);
   21b58:	80c0018d 	sth	r3,6(r16)
        pFoeInd->FoeHeader.Cmd.ErrorCode[FOE_COMMAND_HIGHWORD] = ((d & 0xFFFF0000) >> 16);
   21b5c:	8000028d 	sth	zero,10(r16)
        UINT8 b = 0;
   21b60:	0005883a 	mov	r2,zero
            UINT16 data = ((UINT16 MBXMEM *) pFoeInd->Data)[(b >> 1)];
   21b64:	10c03f8c 	andi	r3,r2,254
   21b68:	80c7883a 	add	r3,r16,r3
   21b6c:	18c0030b 	ldhu	r3,12(r3)
            if ((data & 0x00FF) == 0)
   21b70:	19003fcc 	andi	r4,r3,255
   21b74:	20000426 	beq	r4,zero,21b88 <FOE_ServiceInd+0x334>
            if ((data & 0xFF00) == 0)
   21b78:	18ffffcc 	andi	r3,r3,65535
   21b7c:	18c04028 	cmpgeui	r3,r3,256
   21b80:	18000b1e 	bne	r3,zero,21bb0 <FOE_ServiceInd+0x35c>
            b++;
   21b84:	10800044 	addi	r2,r2,1
            pFoeInd->MbxHeader.Length    += b+1;
   21b88:	108001c4 	addi	r2,r2,7
   21b8c:	10803fcc 	andi	r2,r2,255
   21b90:	8080000d 	sth	r2,0(r16)
   21b94:	00000b06 	br	21bc4 <FOE_ServiceInd+0x370>
            u16FileAccessState = FOE_WAIT_FOR_LAST_ACK;
   21b98:	00800104 	movi	r2,4
   21b9c:	003f6406 	br	21930 <FOE_ServiceInd+0xdc>
   21ba0:	00a00144 	movi	r2,-32763
   21ba4:	003fe806 	br	21b48 <FOE_ServiceInd+0x2f4>
   21ba8:	00a00104 	movi	r2,-32764
   21bac:	003fe606 	br	21b48 <FOE_ServiceInd+0x2f4>
            b++;
   21bb0:	10c00084 	addi	r3,r2,2
   21bb4:	1805883a 	mov	r2,r3
        while (b < 32)
   21bb8:	18c03fcc 	andi	r3,r3,255
   21bbc:	18c00818 	cmpnei	r3,r3,32
   21bc0:	183fe81e 	bne	r3,zero,21b64 <FOE_ServiceInd+0x310>
            u16FileAccessState = FOE_READY;
   21bc4:	d0214d0d 	sth	zero,-31436(gp)
   21bc8:	003f5a06 	br	21934 <FOE_ServiceInd+0xe0>
        if ( MBX_MailboxSendReq((TMBX MBXMEM *) pFoeInd, FOE_SERVICE) != 0 )
   21bcc:	01401004 	movi	r5,64
   21bd0:	8009883a 	mov	r4,r16
   21bd4:	00242640 	call	24264 <MBX_MailboxSendReq>
   21bd8:	10803fcc 	andi	r2,r2,255
   21bdc:	103fb626 	beq	r2,zero,21ab8 <FOE_ServiceInd+0x264>
            pFoeSendStored = (TMBX MBXMEM *) pFoeInd;
   21be0:	d4214c15 	stw	r16,-31440(gp)
   21be4:	003fb406 	br	21ab8 <FOE_ServiceInd+0x264>
        return MBXERR_SIZETOOSHORT;
   21be8:	00800184 	movi	r2,6
}
   21bec:	f800283a 	ret

00021bf0 <FOE_ContinueInd>:
 \brief    This function is called when the next mailbox fragment can be sent.
*////////////////////////////////////////////////////////////////////////////////////////

void FOE_ContinueInd(TMBX MBXMEM * pMbx)
{
    if ( pFoeSendStored )
   21bf0:	d1214c17 	ldw	r4,-31440(gp)
   21bf4:	20000a26 	beq	r4,zero,21c20 <FOE_ContinueInd+0x30>
{
   21bf8:	deffff04 	addi	sp,sp,-4
    {
        /* send the stored FoE service which could not be sent before */
/*ECATCHANGE_START(V5.13) FOE1*/
        if (MBX_MailboxSendReq(pFoeSendStored, FOE_SERVICE) == 0)
   21bfc:	01401004 	movi	r5,64
{
   21c00:	dfc00015 	stw	ra,0(sp)
        if (MBX_MailboxSendReq(pFoeSendStored, FOE_SERVICE) == 0)
   21c04:	00242640 	call	24264 <MBX_MailboxSendReq>
   21c08:	10803fcc 	andi	r2,r2,255
   21c0c:	1000011e 	bne	r2,zero,21c14 <FOE_ContinueInd+0x24>
        {
            pFoeSendStored = 0;
   21c10:	d0214c15 	stw	zero,-31440(gp)
        }
    }
/*ECATCHANGE_END(V5.13) EOE1*/
}
   21c14:	dfc00017 	ldw	ra,0(sp)
   21c18:	dec00104 	addi	sp,sp,4
   21c1c:	f800283a 	ret
   21c20:	f800283a 	ret

00021c24 <ResetALEventMask>:
 \param    intMask        interrupt mask (disabled interrupt shall be zero)

 \brief    This function makes an logical and with the AL Event Mask register (0x204)
*////////////////////////////////////////////////////////////////////////////////////////
void ResetALEventMask(UINT16 intMask)
{
   21c24:	defffd04 	addi	sp,sp,-12
   21c28:	dc000115 	stw	r16,4(sp)
    UINT16 mask;
    HW_EscReadWord(mask, ESC_AL_EVENTMASK_OFFSET);
   21c2c:	01800084 	movi	r6,2
{
   21c30:	2021883a 	mov	r16,r4
    HW_EscReadWord(mask, ESC_AL_EVENTMASK_OFFSET);
   21c34:	01408104 	movi	r5,516
   21c38:	d9000084 	addi	r4,sp,2
{
   21c3c:	dfc00215 	stw	ra,8(sp)
    HW_EscReadWord(mask, ESC_AL_EVENTMASK_OFFSET);
   21c40:	00205e00 	call	205e0 <HW_EscRead>
    
    mask &= intMask;
   21c44:	d880008b 	ldhu	r2,2(sp)


    DISABLE_ESC_INT();


    HW_EscWriteWord(mask, ESC_AL_EVENTMASK_OFFSET);
   21c48:	01800084 	movi	r6,2
   21c4c:	01408104 	movi	r5,516
    mask &= intMask;
   21c50:	80a0703a 	and	r16,r16,r2
    HW_EscWriteWord(mask, ESC_AL_EVENTMASK_OFFSET);
   21c54:	d9000084 	addi	r4,sp,2
    mask &= intMask;
   21c58:	dc00008d 	sth	r16,2(sp)
    HW_EscWriteWord(mask, ESC_AL_EVENTMASK_OFFSET);
   21c5c:	00206640 	call	20664 <HW_EscWrite>
    ENABLE_ESC_INT();
}
   21c60:	dfc00217 	ldw	ra,8(sp)
   21c64:	dc000117 	ldw	r16,4(sp)
   21c68:	dec00304 	addi	sp,sp,12
   21c6c:	f800283a 	ret

00021c70 <SetALEventMask>:
 \param    intMask        interrupt mask (enabled interrupt shall be one)

  \brief    This function makes an logical or with the AL Event Mask register (0x204)
*////////////////////////////////////////////////////////////////////////////////////////
void SetALEventMask(UINT16 intMask)
{
   21c70:	defffd04 	addi	sp,sp,-12
   21c74:	dc000115 	stw	r16,4(sp)
    UINT16 mask;
    HW_EscReadWord(mask, ESC_AL_EVENTMASK_OFFSET);
   21c78:	01800084 	movi	r6,2
{
   21c7c:	2021883a 	mov	r16,r4
    HW_EscReadWord(mask, ESC_AL_EVENTMASK_OFFSET);
   21c80:	01408104 	movi	r5,516
   21c84:	d9000084 	addi	r4,sp,2
{
   21c88:	dfc00215 	stw	ra,8(sp)
    HW_EscReadWord(mask, ESC_AL_EVENTMASK_OFFSET);
   21c8c:	00205e00 	call	205e0 <HW_EscRead>
    

    mask |= intMask;
   21c90:	d880008b 	ldhu	r2,2(sp)

    DISABLE_ESC_INT();


    HW_EscWriteWord(mask, ESC_AL_EVENTMASK_OFFSET);
   21c94:	01800084 	movi	r6,2
   21c98:	01408104 	movi	r5,516
    mask |= intMask;
   21c9c:	80a0b03a 	or	r16,r16,r2
    HW_EscWriteWord(mask, ESC_AL_EVENTMASK_OFFSET);
   21ca0:	d9000084 	addi	r4,sp,2
    mask |= intMask;
   21ca4:	dc00008d 	sth	r16,2(sp)
    HW_EscWriteWord(mask, ESC_AL_EVENTMASK_OFFSET);
   21ca8:	00206640 	call	20664 <HW_EscWrite>
    ENABLE_ESC_INT();
}
   21cac:	dfc00217 	ldw	ra,8(sp)
   21cb0:	dc000117 	ldw	r16,4(sp)
   21cb4:	dec00304 	addi	sp,sp,12
   21cb8:	f800283a 	ret

00021cbc <UpdateEEPROMLoadedState>:
/**

\brief    This function reads the EEPROM loaded state
*////////////////////////////////////////////////////////////////////////////////////////
void UpdateEEPROMLoadedState(void)
{
   21cbc:	defffe04 	addi	sp,sp,-8
    UINT16 TmpVar = 0;
    //read EEPROM loaded information
    HW_EscReadWord(TmpVar, ESC_EEPROM_CONTROL_OFFSET);
   21cc0:	01800084 	movi	r6,2
   21cc4:	01414084 	movi	r5,1282
   21cc8:	d9000084 	addi	r4,sp,2
{
   21ccc:	dfc00115 	stw	ra,4(sp)
    UINT16 TmpVar = 0;
   21cd0:	d800008d 	sth	zero,2(sp)
    HW_EscReadWord(TmpVar, ESC_EEPROM_CONTROL_OFFSET);
   21cd4:	00205e00 	call	205e0 <HW_EscRead>
    TmpVar = SWAPWORD(TmpVar);


    if (((TmpVar & ESC_EEPROM_ERROR_CRC) > 0)
        || ((TmpVar & ESC_EEPROM_ERROR_LOAD) > 0))
   21cd8:	d880008b 	ldhu	r2,2(sp)
   21cdc:	1086000c 	andi	r2,r2,6144
   21ce0:	1005003a 	cmpeq	r2,r2,zero
   21ce4:	d0a15105 	stb	r2,-31420(gp)
    }
    else
    {
        EepromLoaded = TRUE;
    }
}
   21ce8:	dfc00117 	ldw	ra,4(sp)
   21cec:	dec00204 	addi	sp,sp,8
   21cf0:	f800283a 	ret

00021cf4 <GetSyncMan>:
             process data SYNC Managers.
*////////////////////////////////////////////////////////////////////////////////////////

TSYNCMAN ESCMEM * GetSyncMan( UINT8 channel )
{
    HW_EscRead((MEM_ADDR *)&SyncManInfo, ESC_SYNCMAN_REG_OFFSET + (channel * SIZEOF_SM_REGISTER), SIZEOF_SM_REGISTER );
   21cf4:	21403fcc 	andi	r5,r4,255
   21cf8:	29404004 	addi	r5,r5,256
   21cfc:	280a90fa 	slli	r5,r5,3
{
   21d00:	deffff04 	addi	sp,sp,-4
    HW_EscRead((MEM_ADDR *)&SyncManInfo, ESC_SYNCMAN_REG_OFFSET + (channel * SIZEOF_SM_REGISTER), SIZEOF_SM_REGISTER );
   21d04:	01800204 	movi	r6,8
   21d08:	d1215184 	addi	r4,gp,-31418
{
   21d0c:	dfc00015 	stw	ra,0(sp)
    HW_EscRead((MEM_ADDR *)&SyncManInfo, ESC_SYNCMAN_REG_OFFSET + (channel * SIZEOF_SM_REGISTER), SIZEOF_SM_REGISTER );
   21d10:	00205e00 	call	205e0 <HW_EscRead>



    return &SyncManInfo;
}
   21d14:	d0a15184 	addi	r2,gp,-31418
   21d18:	dfc00017 	ldw	ra,0(sp)
   21d1c:	dec00104 	addi	sp,sp,4
   21d20:	f800283a 	ret

00021d24 <DisableSyncManChannel>:
 \param     channel        Sync Manager channel

 \brief    This function disables a Sync Manager channel
*////////////////////////////////////////////////////////////////////////////////////////
void DisableSyncManChannel(UINT8 channel)
{
   21d24:	defffd04 	addi	sp,sp,-12
   21d28:	dc000115 	stw	r16,4(sp)
    UINT16 Offset;
    VARVOLATILE UINT8 smStatus = SM_SETTING_PDI_DISABLE;
    Offset = (ESC_SM_PDICONTROL_OFFSET + (SIZEOF_SM_REGISTER*channel));
   21d2c:	24003fcc 	andi	r16,r4,255
   21d30:	802090fa 	slli	r16,r16,3
    VARVOLATILE UINT8 smStatus = SM_SETTING_PDI_DISABLE;
   21d34:	00800044 	movi	r2,1

    HW_EscWriteByte(smStatus,Offset);
   21d38:	01800044 	movi	r6,1
    Offset = (ESC_SM_PDICONTROL_OFFSET + (SIZEOF_SM_REGISTER*channel));
   21d3c:	840201c4 	addi	r16,r16,2055
    HW_EscWriteByte(smStatus,Offset);
   21d40:	843fffcc 	andi	r16,r16,65535
   21d44:	800b883a 	mov	r5,r16
   21d48:	d90000c4 	addi	r4,sp,3
{
   21d4c:	dfc00215 	stw	ra,8(sp)
    VARVOLATILE UINT8 smStatus = SM_SETTING_PDI_DISABLE;
   21d50:	d88000c5 	stb	r2,3(sp)
    HW_EscWriteByte(smStatus,Offset);
   21d54:	00206640 	call	20664 <HW_EscWrite>
    
    /*wait until SyncManager is disabled*/
    do
    {
        HW_EscReadByte(smStatus, Offset);
   21d58:	01800044 	movi	r6,1
   21d5c:	800b883a 	mov	r5,r16
   21d60:	d90000c4 	addi	r4,sp,3
   21d64:	00205e00 	call	205e0 <HW_EscRead>
    }while(!(smStatus & SM_SETTING_PDI_DISABLE));
   21d68:	d88000c3 	ldbu	r2,3(sp)
   21d6c:	1080004c 	andi	r2,r2,1
   21d70:	103ff926 	beq	r2,zero,21d58 <DisableSyncManChannel+0x34>
}
   21d74:	dfc00217 	ldw	ra,8(sp)
   21d78:	dc000117 	ldw	r16,4(sp)
   21d7c:	dec00304 	addi	sp,sp,12
   21d80:	f800283a 	ret

00021d84 <EnableSyncManChannel>:
 \param     channel        Sync Manager channel

 \brief    This function enables a Sync Manager channel
*////////////////////////////////////////////////////////////////////////////////////////
void EnableSyncManChannel(UINT8 channel)
{
   21d84:	defffd04 	addi	sp,sp,-12
   21d88:	dc000115 	stw	r16,4(sp)
    UINT16 Offset;
    VARVOLATILE UINT8 smStatus = 0x00;
    Offset = (ESC_SM_PDICONTROL_OFFSET + (SIZEOF_SM_REGISTER*channel));
   21d8c:	24003fcc 	andi	r16,r4,255
   21d90:	802090fa 	slli	r16,r16,3

    HW_EscWriteByte(smStatus,Offset);
   21d94:	01800044 	movi	r6,1
   21d98:	d90000c4 	addi	r4,sp,3
    Offset = (ESC_SM_PDICONTROL_OFFSET + (SIZEOF_SM_REGISTER*channel));
   21d9c:	840201c4 	addi	r16,r16,2055
    HW_EscWriteByte(smStatus,Offset);
   21da0:	843fffcc 	andi	r16,r16,65535
   21da4:	800b883a 	mov	r5,r16
{
   21da8:	dfc00215 	stw	ra,8(sp)
    VARVOLATILE UINT8 smStatus = 0x00;
   21dac:	d80000c5 	stb	zero,3(sp)
    HW_EscWriteByte(smStatus,Offset);
   21db0:	00206640 	call	20664 <HW_EscWrite>
    
    /*wait until SyncManager is enabled*/
    do
    {
        HW_EscReadByte(smStatus,Offset);
   21db4:	01800044 	movi	r6,1
   21db8:	800b883a 	mov	r5,r16
   21dbc:	d90000c4 	addi	r4,sp,3
   21dc0:	00205e00 	call	205e0 <HW_EscRead>
    }while((smStatus & SM_SETTING_PDI_DISABLE));
   21dc4:	d88000c3 	ldbu	r2,3(sp)
   21dc8:	1080004c 	andi	r2,r2,1
   21dcc:	103ff91e 	bne	r2,zero,21db4 <EnableSyncManChannel+0x30>
}
   21dd0:	dfc00217 	ldw	ra,8(sp)
   21dd4:	dc000117 	ldw	r16,4(sp)
   21dd8:	dec00304 	addi	sp,sp,12
   21ddc:	f800283a 	ret

00021de0 <CheckSmSettings>:
    UINT16 SMLength = 0;
    UINT16 SMAddress = 0;


        //Check if max address defines are within the available ESC address range
        if ((nMaxEscAddress < MAX_PD_WRITE_ADDRESS)
   21de0:	d0a1570b 	ldhu	r2,-31396(gp)
{
   21de4:	defffc04 	addi	sp,sp,-16
   21de8:	dfc00315 	stw	ra,12(sp)
   21dec:	dc800215 	stw	r18,8(sp)
   21df0:	dc400115 	stw	r17,4(sp)
   21df4:	dc000015 	stw	r16,0(sp)
        if ((nMaxEscAddress < MAX_PD_WRITE_ADDRESS)
   21df8:	108bfff0 	cmpltui	r2,r2,12287
   21dfc:	1000921e 	bne	r2,zero,22048 <CheckSmSettings+0x268>
   21e00:	2025883a 	mov	r18,r4
   21e04:	2023883a 	mov	r17,r4

                return ALSTATUSCODE_NOVALIDFIRMWARE;
        }

    /* check the Sync Manager Parameter for the Receive Mailbox (Sync Manager Channel 0) */
    pSyncMan = GetSyncMan(MAILBOX_WRITE);
   21e08:	0009883a 	mov	r4,zero
   21e0c:	0021cf40 	call	21cf4 <GetSyncMan>
    SMLength = pSyncMan->Length;
    SMAddress = pSyncMan->PhysicalStartAddress;



    if (!(pSyncMan->Settings[SM_SETTING_ACTIVATE_OFFSET] & SM_SETTING_ENABLE_VALUE))
   21e10:	11400183 	ldbu	r5,6(r2)
    SMLength = pSyncMan->Length;
   21e14:	1100008b 	ldhu	r4,2(r2)
    SMAddress = pSyncMan->PhysicalStartAddress;
   21e18:	10c0000b 	ldhu	r3,0(r2)
    if (!(pSyncMan->Settings[SM_SETTING_ACTIVATE_OFFSET] & SM_SETTING_ENABLE_VALUE))
   21e1c:	2940004c 	andi	r5,r5,1
   21e20:	2800081e 	bne	r5,zero,21e44 <CheckSmSettings+0x64>
            result = SYNCMANCHSIZE + 1;
        }

        if ( result != 0 )
        {
            result = ALSTATUSCODE_INVALIDSMOUTCFG;
   21e24:	04000584 	movi	r16,22
            pSyncMan = GetSyncMan(i);
            SMActivate = pSyncMan->Settings[SM_SETTING_ACTIVATE_OFFSET];
        }
    }
    return result;
}
   21e28:	8005883a 	mov	r2,r16
   21e2c:	dfc00317 	ldw	ra,12(sp)
   21e30:	dc800217 	ldw	r18,8(sp)
   21e34:	dc400117 	ldw	r17,4(sp)
   21e38:	dc000017 	ldw	r16,0(sp)
   21e3c:	dec00404 	addi	sp,sp,16
   21e40:	f800283a 	ret
    else if ((pSyncMan->Settings[SM_SETTING_CONTROL_OFFSET] & SM_SETTING_DIRECTION_MASK) != SM_SETTING_DIRECTION_WRITE_VALUE)
   21e44:	10800103 	ldbu	r2,4(r2)
   21e48:	1140030c 	andi	r5,r2,12
   21e4c:	29400118 	cmpnei	r5,r5,4
   21e50:	283ff41e 	bne	r5,zero,21e24 <CheckSmSettings+0x44>
    else if ((pSyncMan->Settings[SM_SETTING_CONTROL_OFFSET] & SM_SETTING_MODE_MASK) != SM_SETTING_MODE_ONE_BUFFER_VALUE)
   21e54:	1080008c 	andi	r2,r2,2
   21e58:	103ff226 	beq	r2,zero,21e24 <CheckSmSettings+0x44>
    else if (SMLength < MIN_MBX_SIZE)
   21e5c:	20bff704 	addi	r2,r4,-36
   21e60:	10bfffcc 	andi	r2,r2,65535
   21e64:	10801768 	cmpgeui	r2,r2,93
   21e68:	103fee1e 	bne	r2,zero,21e24 <CheckSmSettings+0x44>
    else if (SMAddress < MIN_MBX_WRITE_ADDRESS)
   21e6c:	18bc0004 	addi	r2,r3,-4096
   21e70:	10bfffcc 	andi	r2,r2,65535
   21e74:	10880028 	cmpgeui	r2,r2,8192
   21e78:	103fea1e 	bne	r2,zero,21e24 <CheckSmSettings+0x44>
        pSyncMan = GetSyncMan(MAILBOX_READ);
   21e7c:	01000044 	movi	r4,1
   21e80:	0021cf40 	call	21cf4 <GetSyncMan>
    if (!(pSyncMan->Settings[SM_SETTING_ACTIVATE_OFFSET] & SM_SETTING_ENABLE_VALUE))
   21e84:	11400183 	ldbu	r5,6(r2)
    SMLength = pSyncMan->Length;
   21e88:	1100008b 	ldhu	r4,2(r2)
    SMAddress = pSyncMan->PhysicalStartAddress;
   21e8c:	10c0000b 	ldhu	r3,0(r2)
    if (!(pSyncMan->Settings[SM_SETTING_ACTIVATE_OFFSET] & SM_SETTING_ENABLE_VALUE))
   21e90:	2940004c 	andi	r5,r5,1
   21e94:	283fe326 	beq	r5,zero,21e24 <CheckSmSettings+0x44>
    else if ((pSyncMan->Settings[SM_SETTING_CONTROL_OFFSET] & SM_SETTING_DIRECTION_MASK) != SM_SETTING_DIRECTION_READ_VALUE)
   21e98:	10800103 	ldbu	r2,4(r2)
   21e9c:	1140030c 	andi	r5,r2,12
   21ea0:	2821883a 	mov	r16,r5
   21ea4:	283fdf1e 	bne	r5,zero,21e24 <CheckSmSettings+0x44>
    else if ((pSyncMan->Settings[SM_SETTING_CONTROL_OFFSET] & SM_SETTING_MODE_MASK) != SM_SETTING_MODE_ONE_BUFFER_VALUE)
   21ea8:	1080008c 	andi	r2,r2,2
   21eac:	103fdd26 	beq	r2,zero,21e24 <CheckSmSettings+0x44>
    else if (SMLength < MIN_MBX_SIZE)
   21eb0:	20bff704 	addi	r2,r4,-36
   21eb4:	10bfffcc 	andi	r2,r2,65535
   21eb8:	10801768 	cmpgeui	r2,r2,93
   21ebc:	103fd91e 	bne	r2,zero,21e24 <CheckSmSettings+0x44>
    else if (SMAddress < MIN_MBX_READ_ADDRESS)
   21ec0:	18bc0004 	addi	r2,r3,-4096
   21ec4:	10bfffcc 	andi	r2,r2,65535
   21ec8:	10880028 	cmpgeui	r2,r2,8192
   21ecc:	103fd51e 	bne	r2,zero,21e24 <CheckSmSettings+0x44>
    if ( result == 0 && maxChannel > PROCESS_DATA_IN )
   21ed0:	94803fcc 	andi	r18,r18,255
   21ed4:	90800130 	cmpltui	r2,r18,4
   21ed8:	1000421e 	bne	r2,zero,21fe4 <CheckSmSettings+0x204>
        b3BufferMode = TRUE;
   21edc:	00800044 	movi	r2,1
        pSyncMan = GetSyncMan(PROCESS_DATA_IN);
   21ee0:	010000c4 	movi	r4,3
        b3BufferMode = TRUE;
   21ee4:	d0a15b05 	stb	r2,-31380(gp)
        pSyncMan = GetSyncMan(PROCESS_DATA_IN);
   21ee8:	0021cf40 	call	21cf4 <GetSyncMan>
    if ((pSyncMan->Settings[SM_SETTING_ACTIVATE_OFFSET] & SM_SETTING_ENABLE_VALUE) != 0 && SMLength == 0)
   21eec:	11400183 	ldbu	r5,6(r2)
    SMLength = pSyncMan->Length;
   21ef0:	1100008b 	ldhu	r4,2(r2)
    SMAddress = pSyncMan->PhysicalStartAddress;
   21ef4:	10c0000b 	ldhu	r3,0(r2)
    if ((pSyncMan->Settings[SM_SETTING_ACTIVATE_OFFSET] & SM_SETTING_ENABLE_VALUE) != 0 && SMLength == 0)
   21ef8:	2940004c 	andi	r5,r5,1
   21efc:	28003426 	beq	r5,zero,21fd0 <CheckSmSettings+0x1f0>
   21f00:	217fffc4 	addi	r5,r4,-1
   21f04:	297fffcc 	andi	r5,r5,65535
   21f08:	29408928 	cmpgeui	r5,r5,548
   21f0c:	28000d1e 	bne	r5,zero,21f44 <CheckSmSettings+0x164>
                if (SMLength != nPdInputSize || nPdInputSize == 0 || SMLength > MAX_PD_INPUT_SIZE)
   21f10:	d161588b 	ldhu	r5,-31390(gp)
   21f14:	213fffcc 	andi	r4,r4,65535
   21f18:	21400a1e 	bne	r4,r5,21f44 <CheckSmSettings+0x164>
                    if ((pSyncMan->Settings[SM_SETTING_CONTROL_OFFSET] & SM_SETTING_DIRECTION_MASK) == SM_SETTING_DIRECTION_READ_VALUE)
   21f1c:	10800103 	ldbu	r2,4(r2)
   21f20:	1100030c 	andi	r4,r2,12
   21f24:	2000071e 	bne	r4,zero,21f44 <CheckSmSettings+0x164>
                        if (((nAlStatus == STATE_PREOP) && (SMAddress >= MIN_PD_READ_ADDRESS) && (SMAddress <= MAX_PD_READ_ADDRESS))
   21f28:	d12156c3 	ldbu	r4,-31397(gp)
   21f2c:	21000098 	cmpnei	r4,r4,2
   21f30:	2000061e 	bne	r4,zero,21f4c <CheckSmSettings+0x16c>
   21f34:	18fc0004 	addi	r3,r3,-4096
   21f38:	18ffffcc 	andi	r3,r3,65535
   21f3c:	18c80030 	cmpltui	r3,r3,8192
   21f40:	1800051e 	bne	r3,zero,21f58 <CheckSmSettings+0x178>
            result = ALSTATUSCODE_INVALIDSMINCFG;
   21f44:	04000784 	movi	r16,30
   21f48:	003fb706 	br	21e28 <CheckSmSettings+0x48>
                            || ((nAlStatus != STATE_PREOP) && (SMAddress == nEscAddrInputData))
   21f4c:	d121550b 	ldhu	r4,-31404(gp)
   21f50:	18ffffcc 	andi	r3,r3,65535
   21f54:	193ffb1e 	bne	r3,r4,21f44 <CheckSmSettings+0x164>
                                if ((pSyncMan->Settings[SM_SETTING_CONTROL_OFFSET] & SM_SETTING_MODE_MASK) == SM_SETTING_MODE_ONE_BUFFER_VALUE)
   21f58:	1080008c 	andi	r2,r2,2
   21f5c:	10000126 	beq	r2,zero,21f64 <CheckSmSettings+0x184>
                                    b3BufferMode = FALSE;
   21f60:	d0215b05 	stb	zero,-31380(gp)
        pSyncMan = GetSyncMan(PROCESS_DATA_OUT);
   21f64:	01000084 	movi	r4,2
   21f68:	0021cf40 	call	21cf4 <GetSyncMan>
    if ((pSyncMan->Settings[SM_SETTING_ACTIVATE_OFFSET] & SM_SETTING_ENABLE_VALUE) != 0 && SMLength == 0)
   21f6c:	11400183 	ldbu	r5,6(r2)
    SMLength = pSyncMan->Length;
   21f70:	1100008b 	ldhu	r4,2(r2)
    SMAddress = pSyncMan->PhysicalStartAddress;
   21f74:	10c0000b 	ldhu	r3,0(r2)
    if ((pSyncMan->Settings[SM_SETTING_ACTIVATE_OFFSET] & SM_SETTING_ENABLE_VALUE) != 0 && SMLength == 0)
   21f78:	2940004c 	andi	r5,r5,1
   21f7c:	28002d26 	beq	r5,zero,22034 <CheckSmSettings+0x254>
   21f80:	217fffc4 	addi	r5,r4,-1
   21f84:	297fffcc 	andi	r5,r5,65535
   21f88:	29400428 	cmpgeui	r5,r5,16
   21f8c:	28000e1e 	bne	r5,zero,21fc8 <CheckSmSettings+0x1e8>
            if ( SMLength == nPdOutputSize && nPdOutputSize != 0 && SMLength <= ((UINT16)MAX_PD_OUTPUT_SIZE))
   21f90:	d161580b 	ldhu	r5,-31392(gp)
   21f94:	213fffcc 	andi	r4,r4,65535
   21f98:	21400b1e 	bne	r4,r5,21fc8 <CheckSmSettings+0x1e8>
                if ( (pSyncMan->Settings[SM_SETTING_CONTROL_OFFSET] & SM_SETTING_DIRECTION_MASK) == SM_SETTING_DIRECTION_WRITE_VALUE )
   21f9c:	10800103 	ldbu	r2,4(r2)
   21fa0:	1100030c 	andi	r4,r2,12
   21fa4:	21000118 	cmpnei	r4,r4,4
   21fa8:	2000071e 	bne	r4,zero,21fc8 <CheckSmSettings+0x1e8>
                    if ( ( ( nAlStatus == STATE_PREOP )&&( SMAddress >= MIN_PD_WRITE_ADDRESS )&&( SMAddress <= MAX_PD_WRITE_ADDRESS ) )
   21fac:	d12156c3 	ldbu	r4,-31397(gp)
   21fb0:	21000098 	cmpnei	r4,r4,2
   21fb4:	2000151e 	bne	r4,zero,2200c <CheckSmSettings+0x22c>
   21fb8:	18fc0004 	addi	r3,r3,-4096
   21fbc:	18ffffcc 	andi	r3,r3,65535
   21fc0:	18c80030 	cmpltui	r3,r3,8192
   21fc4:	1800141e 	bne	r3,zero,22018 <CheckSmSettings+0x238>
            result = ALSTATUSCODE_INVALIDSMOUTCFG;
   21fc8:	04000744 	movi	r16,29
   21fcc:	003f9606 	br	21e28 <CheckSmSettings+0x48>
        else if (SMLength != 0 || nPdInputSize != 0)
   21fd0:	d0a1588b 	ldhu	r2,-31390(gp)
   21fd4:	1104b03a 	or	r2,r2,r4
   21fd8:	10bfffcc 	andi	r2,r2,65535
   21fdc:	103fe126 	beq	r2,zero,21f64 <CheckSmSettings+0x184>
   21fe0:	003fd806 	br	21f44 <CheckSmSettings+0x164>
    if (result == 0 && maxChannel > PROCESS_DATA_OUT)
   21fe4:	948000e0 	cmpeqi	r18,r18,3
   21fe8:	903fde1e 	bne	r18,zero,21f64 <CheckSmSettings+0x184>
        for (i = maxChannel; i < nMaxSyncMan; i++)
   21fec:	d0a15783 	ldbu	r2,-31394(gp)
   21ff0:	89003fcc 	andi	r4,r17,255
   21ff4:	20bf8c2e 	bgeu	r4,r2,21e28 <CheckSmSettings+0x48>
            pSyncMan = GetSyncMan(i);
   21ff8:	0021cf40 	call	21cf4 <GetSyncMan>
            SMActivate = pSyncMan->Settings[SM_SETTING_ACTIVATE_OFFSET];
   21ffc:	10800183 	ldbu	r2,6(r2)
        for (i = maxChannel; i < nMaxSyncMan; i++)
   22000:	8c400044 	addi	r17,r17,1
            SMActivate = pSyncMan->Settings[SM_SETTING_ACTIVATE_OFFSET];
   22004:	d0a15385 	stb	r2,-31410(gp)
        for (i = maxChannel; i < nMaxSyncMan; i++)
   22008:	003ff806 	br	21fec <CheckSmSettings+0x20c>
                       ||( ( nAlStatus != STATE_PREOP )&&( SMAddress == nEscAddrOutputData ) )
   2200c:	d121558b 	ldhu	r4,-31402(gp)
   22010:	18ffffcc 	andi	r3,r3,65535
   22014:	193fec1e 	bne	r3,r4,21fc8 <CheckSmSettings+0x1e8>
                            if (pSyncMan->Settings[SM_SETTING_CONTROL_OFFSET] & SM_SETTING_WATCHDOG_VALUE)
   22018:	1006d1ba 	srli	r3,r2,6
                            if ((pSyncMan->Settings[SM_SETTING_CONTROL_OFFSET] & SM_SETTING_MODE_MASK) == SM_SETTING_MODE_ONE_BUFFER_VALUE)
   2201c:	1080008c 	andi	r2,r2,2
                            if (pSyncMan->Settings[SM_SETTING_CONTROL_OFFSET] & SM_SETTING_WATCHDOG_VALUE)
   22020:	18c0004c 	andi	r3,r3,1
                                bWdTrigger = TRUE;
   22024:	d0e162c5 	stb	r3,-31349(gp)
                            if ((pSyncMan->Settings[SM_SETTING_CONTROL_OFFSET] & SM_SETTING_MODE_MASK) == SM_SETTING_MODE_ONE_BUFFER_VALUE)
   22028:	103ff026 	beq	r2,zero,21fec <CheckSmSettings+0x20c>
                                b3BufferMode = FALSE;
   2202c:	d0215b05 	stb	zero,-31380(gp)
   22030:	003fee06 	br	21fec <CheckSmSettings+0x20c>
        else if (SMLength != 0 || nPdOutputSize != 0)
   22034:	d0a1580b 	ldhu	r2,-31392(gp)
   22038:	1104b03a 	or	r2,r2,r4
   2203c:	10bfffcc 	andi	r2,r2,65535
   22040:	103fea26 	beq	r2,zero,21fec <CheckSmSettings+0x20c>
   22044:	003fe006 	br	21fc8 <CheckSmSettings+0x1e8>
                return ALSTATUSCODE_NOVALIDFIRMWARE;
   22048:	04000504 	movi	r16,20
   2204c:	003f7606 	br	21e28 <CheckSmSettings+0x48>

00022050 <StartInputHandler>:
 \brief  and the AL Event Mask register will be set

*////////////////////////////////////////////////////////////////////////////////////////

UINT16 StartInputHandler(void)
{
   22050:	defff104 	addi	sp,sp,-60
   22054:	dc800715 	stw	r18,28(sp)
   22058:	dc000515 	stw	r16,20(sp)
    UINT16 SyncType0x1C33 = 0; /* Helper variable for sync type for SM3 (required if no CoE is supported or no input process data available)*/

    UINT16 u16MinSuppSyncType = 0xFFFF;  /* Minimum supported Sync Types */

    u16MinSuppSyncType &= sSyncManOutPar.u16SyncTypesSupported;
    u16MinSuppSyncType &= sSyncManInPar.u16SyncTypesSupported;
   2205c:	048000f4 	movhi	r18,3
    u16MinSuppSyncType &= sSyncManOutPar.u16SyncTypesSupported;
   22060:	040000f4 	movhi	r16,3
   22064:	84233204 	addi	r16,r16,-29496
    u16MinSuppSyncType &= sSyncManInPar.u16SyncTypesSupported;
   22068:	94a32104 	addi	r18,r18,-29564
        --- Check if SyncManager areas overlapping --- 
    */
    bEcatFirstOutputsReceived = FALSE;

    /* get a pointer to the Sync Manager Channel 2 (Outputs) */
    pSyncMan = GetSyncMan(PROCESS_DATA_OUT);
   2206c:	01000084 	movi	r4,2
{
   22070:	dd000915 	stw	r20,36(sp)
   22074:	dcc00815 	stw	r19,32(sp)
    u16MinSuppSyncType &= sSyncManInPar.u16SyncTypesSupported;
   22078:	9500030b 	ldhu	r20,12(r18)
    u16MinSuppSyncType &= sSyncManOutPar.u16SyncTypesSupported;
   2207c:	84c0030b 	ldhu	r19,12(r16)
{
   22080:	dfc00e15 	stw	ra,56(sp)
   22084:	df000d15 	stw	fp,52(sp)
   22088:	ddc00c15 	stw	r23,48(sp)
   2208c:	dd800b15 	stw	r22,44(sp)
   22090:	dd400a15 	stw	r21,40(sp)
   22094:	dc400615 	stw	r17,24(sp)
    UINT16     wdiv = 0;
   22098:	d800020d 	sth	zero,8(sp)
    UINT16     wd = 0;
   2209c:	d800028d 	sth	zero,10(sp)
    UINT32     cycleTimeSync0 = 0; /* Sync0 cycle time */
   220a0:	d8000315 	stw	zero,12(sp)
    UINT32     shiftTimeSync1 = 0; /* Delay between the Sync0 and Sycn1 signal. A new Sync1 cycle starts on the next Sync0 signal after Sync1 signal.*/
   220a4:	d8000415 	stw	zero,16(sp)
    u16ALEventMask = 0;
   220a8:	d021548d 	sth	zero,-31406(gp)
    bEcatFirstOutputsReceived = FALSE;
   220ac:	d0216305 	stb	zero,-31348(gp)
    pSyncMan = GetSyncMan(PROCESS_DATA_OUT);
   220b0:	0021cf40 	call	21cf4 <GetSyncMan>
    /* store the address of the Sync Manager Channel 2 (Outputs) */
    nEscAddrOutputData = pSyncMan->PhysicalStartAddress;
   220b4:	10c0000b 	ldhu	r3,0(r2)
    /* get the number of output buffer used for calculating the address areas */
    if (pSyncMan->Settings[SM_SETTING_CONTROL_OFFSET] & SM_SETTING_MODE_ONE_BUFFER_VALUE)
   220b8:	10800103 	ldbu	r2,4(r2)
    nEscAddrOutputData = pSyncMan->PhysicalStartAddress;
   220bc:	d0e1558d 	sth	r3,-31402(gp)
    if (pSyncMan->Settings[SM_SETTING_CONTROL_OFFSET] & SM_SETTING_MODE_ONE_BUFFER_VALUE)
   220c0:	1080008c 	andi	r2,r2,2
   220c4:	1000491e 	bne	r2,zero,221ec <StartInputHandler+0x19c>
    UINT16    nPdOutputBuffer = 3;
   220c8:	070000c4 	movi	fp,3
       nPdOutputBuffer = 1;
    }


    /* get a pointer to the Sync Manager Channel 3 (Inputs) */
    pSyncMan = GetSyncMan(PROCESS_DATA_IN);
   220cc:	010000c4 	movi	r4,3
   220d0:	0021cf40 	call	21cf4 <GetSyncMan>
    /* store the address of the Sync Manager Channel 3 (Inputs)*/
    nEscAddrInputData = pSyncMan->PhysicalStartAddress;
   220d4:	1440000b 	ldhu	r17,0(r2)


    /* get the number of input buffer used for calculating the address areas */
    if (pSyncMan->Settings[SM_SETTING_CONTROL_OFFSET] & SM_SETTING_MODE_ONE_BUFFER_VALUE)
   220d8:	10800103 	ldbu	r2,4(r2)
    nEscAddrInputData = pSyncMan->PhysicalStartAddress;
   220dc:	d461550d 	sth	r17,-31404(gp)
    if (pSyncMan->Settings[SM_SETTING_CONTROL_OFFSET] & SM_SETTING_MODE_ONE_BUFFER_VALUE)
   220e0:	1080008c 	andi	r2,r2,2
   220e4:	1000431e 	bne	r2,zero,221f4 <StartInputHandler+0x1a4>
    UINT16    nPdInputBuffer = 3;
   220e8:	010000c4 	movi	r4,3
        nPdInputBuffer = 1;
    }
    /* it has be checked if the Sync Manager memory areas for Inputs and Outputs will not overlap
       the Sync Manager memory areas for the Mailbox */

    if (((nEscAddrInputData + nPdInputSize * nPdInputBuffer) > u16EscAddrSendMbx && (nEscAddrInputData < (u16EscAddrSendMbx + u16SendMbxSize)))
   220ec:	d5a1588b 	ldhu	r22,-31390(gp)
   220f0:	210000cc 	andi	r4,r4,3
   220f4:	8c7fffcc 	andi	r17,r17,65535
   220f8:	b00b883a 	mov	r5,r22
   220fc:	00270240 	call	27024 <__mulsi3>
   22100:	d0e16a0b 	ldhu	r3,-31320(gp)
   22104:	1445883a 	add	r2,r2,r17
   22108:	1880030e 	bge	r3,r2,22118 <StartInputHandler+0xc8>
   2210c:	d1216b8b 	ldhu	r4,-31314(gp)
   22110:	20c9883a 	add	r4,r4,r3
   22114:	8901a316 	blt	r17,r4,227a4 <StartInputHandler+0x754>
       || ((nEscAddrInputData + nPdInputSize * nPdInputBuffer) > u16EscAddrReceiveMbx && (nEscAddrInputData < (u16EscAddrReceiveMbx + u16ReceiveMbxSize)))
   22118:	d5e16a8b 	ldhu	r23,-31318(gp)
   2211c:	b880030e 	bge	r23,r2,2212c <StartInputHandler+0xdc>
   22120:	d0a16b0b 	ldhu	r2,-31316(gp)
   22124:	15c5883a 	add	r2,r2,r23
   22128:	88819e16 	blt	r17,r2,227a4 <StartInputHandler+0x754>
    {
        return ALSTATUSCODE_INVALIDSMINCFG;
    }

    if (
        ((nEscAddrOutputData + nPdOutputSize * nPdOutputBuffer) > u16EscAddrSendMbx && (nEscAddrOutputData < (u16EscAddrSendMbx + u16SendMbxSize)))
   2212c:	d121580b 	ldhu	r4,-31392(gp)
   22130:	e14000cc 	andi	r5,fp,3
   22134:	d8c00015 	stw	r3,0(sp)
   22138:	d561558b 	ldhu	r21,-31402(gp)
   2213c:	00270240 	call	27024 <__mulsi3>
    if (
   22140:	d8c00017 	ldw	r3,0(sp)
        ((nEscAddrOutputData + nPdOutputSize * nPdOutputBuffer) > u16EscAddrSendMbx && (nEscAddrOutputData < (u16EscAddrSendMbx + u16SendMbxSize)))
   22144:	1545883a 	add	r2,r2,r21
    if (
   22148:	1880030e 	bge	r3,r2,22158 <StartInputHandler+0x108>
        ((nEscAddrOutputData + nPdOutputSize * nPdOutputBuffer) > u16EscAddrSendMbx && (nEscAddrOutputData < (u16EscAddrSendMbx + u16SendMbxSize)))
   2214c:	d1216b8b 	ldhu	r4,-31314(gp)
   22150:	20c7883a 	add	r3,r4,r3
   22154:	a8c19516 	blt	r21,r3,227ac <StartInputHandler+0x75c>
        ||((nEscAddrOutputData + nPdOutputSize * nPdOutputBuffer) > u16EscAddrReceiveMbx && (nEscAddrOutputData < (u16EscAddrReceiveMbx + u16ReceiveMbxSize)))
   22158:	b880030e 	bge	r23,r2,22168 <StartInputHandler+0x118>
   2215c:	d0e16b0b 	ldhu	r3,-31316(gp)
   22160:	1dc7883a 	add	r3,r3,r23
   22164:	a8c19116 	blt	r21,r3,227ac <StartInputHandler+0x75c>
        ||
   22168:	8880020e 	bge	r17,r2,22174 <StartInputHandler+0x124>
        ((nEscAddrOutputData + nPdOutputSize * nPdOutputBuffer) > nEscAddrInputData && (nEscAddrOutputData < (nEscAddrInputData + nPdInputSize)))
   2216c:	8da3883a 	add	r17,r17,r22
   22170:	ac418e16 	blt	r21,r17,227ac <StartInputHandler+0x75c>
        --- Check configured synchronization ---
    */

    /* Get the DC Control/Activation register value*/
    /*Read register 0x981 (corresponding masks are adapted)*/
    HW_EscReadByte(dcControl, ESC_DC_SYNC_ACTIVATION_OFFSET);
   22174:	01800044 	movi	r6,1
   22178:	01426044 	movi	r5,2433
   2217c:	d9000184 	addi	r4,sp,6
   22180:	00205e00 	call	205e0 <HW_EscRead>

    // Cycle time for Sync0
        HW_EscReadDWord(cycleTimeSync0, ESC_DC_SYNC0_CYCLETIME_OFFSET);
   22184:	01800104 	movi	r6,4
   22188:	01426804 	movi	r5,2464
   2218c:	d9000304 	addi	r4,sp,12
   22190:	00205e00 	call	205e0 <HW_EscRead>
        cycleTimeSync0 = SWAPDWORD(cycleTimeSync0);

    // Cycle time for Sync1
        HW_EscReadDWord(shiftTimeSync1, ESC_DC_SYNC1_CYCLETIME_OFFSET);
   22194:	01800104 	movi	r6,4
   22198:	01426904 	movi	r5,2468
   2219c:	d9000404 	addi	r4,sp,16
   221a0:	00205e00 	call	205e0 <HW_EscRead>
    /* check general DC register plausibility and if configuration is supported
       - 0x981 DC Active
       - 0x9A0:0x9A3 Sync0 Cycle
       - 0x9A4:0x9A7 Sync1 Cycle
    */
    if((dcControl & (ESC_DC_SYNC_UNIT_ACTIVE_MASK | ESC_DC_SYNC_UNIT_AUTO_ACTIVE_MASK)) != 0)
   221a4:	d9400183 	ldbu	r5,6(sp)
        shiftTimeSync1 = SWAPDWORD(shiftTimeSync1);
   221a8:	dd400417 	ldw	r21,16(sp)
    SyncType0x1C32 = sSyncManOutPar.u16SyncType;
   221ac:	80c0008b 	ldhu	r3,2(r16)
    SyncType0x1C33 = sSyncManInPar.u16SyncType;
   221b0:	2980024c 	andi	r6,r5,9
   221b4:	9080008b 	ldhu	r2,2(r18)
    if((dcControl & (ESC_DC_SYNC_UNIT_ACTIVE_MASK | ESC_DC_SYNC_UNIT_AUTO_ACTIVE_MASK)) != 0)
   221b8:	3000101e 	bne	r6,zero,221fc <StartInputHandler+0x1ac>


    /*
        Check if the user configured Sync Type matches the DC register values (if the Sync Type is supported was already checked in the object write function)
    */
    if(bSyncSetByUser)
   221bc:	d1216d83 	ldbu	r4,-31306(gp)
   221c0:	21403fcc 	andi	r5,r4,255
   221c4:	28003f1e 	bne	r5,zero,222c4 <StartInputHandler+0x274>
            /* AL Event enabled => Configure SM Sync*/
            if (nPdOutputSize > 0)
            {
                SyncType0x1C32 = SYNCTYPE_SM_SYNCHRON;
                
                if (nPdInputSize > 0)
   221c8:	d0a1588b 	ldhu	r2,-31390(gp)
            if (nPdOutputSize > 0)
   221cc:	d161580b 	ldhu	r5,-31392(gp)
   221d0:	10ffffcc 	andi	r3,r2,65535
   221d4:	28005826 	beq	r5,zero,22338 <StartInputHandler+0x2e8>
                if (nPdInputSize > 0)
   221d8:	1800c21e 	bne	r3,zero,224e4 <StartInputHandler+0x494>
        sSyncManInPar.u32Sync0CycleTime = (UINT32)cycleTimeSync0;
        sSyncManInPar.u32CycleTime = (UINT32)cycleTimeSync0;
    }

    /* Set global flags based on Sync Type */
    if ( !b3BufferMode )
   221dc:	d0e15b03 	ldbu	r3,-31380(gp)
   221e0:	1800a426 	beq	r3,zero,22474 <StartInputHandler+0x424>
                SyncType0x1C32 = SYNCTYPE_SM_SYNCHRON;
   221e4:	00c00044 	movi	r3,1
   221e8:	00007d06 	br	223e0 <StartInputHandler+0x390>
       nPdOutputBuffer = 1;
   221ec:	07000044 	movi	fp,1
   221f0:	003fb606 	br	220cc <StartInputHandler+0x7c>
        nPdInputBuffer = 1;
   221f4:	01000044 	movi	r4,1
   221f8:	003fbc06 	br	220ec <StartInputHandler+0x9c>
        if((dcControl & (ESC_DC_SYNC0_ACTIVE_MASK | ESC_DC_SYNC1_ACTIVE_MASK)) == 0)
   221fc:	2900008c 	andi	r4,r5,2
   22200:	20004926 	beq	r4,zero,22328 <StartInputHandler+0x2d8>
    u16MinSuppSyncType &= sSyncManInPar.u16SyncTypesSupported;
   22204:	9d08703a 	and	r4,r19,r20
        if(u16MinSuppSyncType != 0)
   22208:	21bfffcc 	andi	r6,r4,65535
   2220c:	30000626 	beq	r6,zero,22228 <StartInputHandler+0x1d8>
            if((((u16MinSuppSyncType & SYNCTYPE_DCSYNC0SUPP) == 0) && ((dcControl & ESC_DC_SYNC0_ACTIVE_MASK) != 0))
   22210:	2180010c 	andi	r6,r4,4
   22214:	30004426 	beq	r6,zero,22328 <StartInputHandler+0x2d8>
                ||(((u16MinSuppSyncType & SYNCTYPE_DCSYNC1SUPP) == 0) && ((dcControl & ESC_DC_SYNC1_ACTIVE_MASK) != 0)))
   22218:	2180020c 	andi	r6,r4,8
   2221c:	3000021e 	bne	r6,zero,22228 <StartInputHandler+0x1d8>
   22220:	2980010c 	andi	r6,r5,4
   22224:	3000401e 	bne	r6,zero,22328 <StartInputHandler+0x2d8>
            if (cycleTimeSync0 != 0 && (cycleTimeSync0 < curMinCycleTime || cycleTimeSync0 > MAX_PD_CYCLE_TIME))
   22228:	d9c00317 	ldw	r7,12(sp)
            curMinCycleTime = sSyncManOutPar.u32MinCycleTime;
   2222c:	82000417 	ldw	r8,16(r16)
   22230:	2980018c 	andi	r6,r5,6
            if (cycleTimeSync0 != 0 && (cycleTimeSync0 < curMinCycleTime || cycleTimeSync0 > MAX_PD_CYCLE_TIME))
   22234:	3800131e 	bne	r7,zero,22284 <StartInputHandler+0x234>
        if(((dcControl & ESC_DC_SYNC0_ACTIVE_MASK) != 0) && ((dcControl & ESC_DC_SYNC1_ACTIVE_MASK) != 0))
   22238:	31800198 	cmpnei	r6,r6,6
   2223c:	3000011e 	bne	r6,zero,22244 <StartInputHandler+0x1f4>
            if((shiftTimeSync1 > 0) && (shiftTimeSync1 >= cycleTimeSync0))
   22240:	a800171e 	bne	r21,zero,222a0 <StartInputHandler+0x250>
    if(bSyncSetByUser)
   22244:	d1216d83 	ldbu	r4,-31306(gp)
   22248:	2000391e 	bne	r4,zero,22330 <StartInputHandler+0x2e0>
            if (nPdOutputSize > 0)
   2224c:	d0a1580b 	ldhu	r2,-31392(gp)
   22250:	1000701e 	bne	r2,zero,22414 <StartInputHandler+0x3c4>
   22254:	0009883a 	mov	r4,zero
            if (nPdInputSize > 0)
   22258:	d0e1588b 	ldhu	r3,-31390(gp)
   2225c:	d0a15b03 	ldbu	r2,-31380(gp)
   22260:	18003726 	beq	r3,zero,22340 <StartInputHandler+0x2f0>
                if ((dcControl & ESC_DC_SYNC1_ACTIVE_MASK) != 0)
   22264:	2940010c 	andi	r5,r5,4
   22268:	2800911e 	bne	r5,zero,224b0 <StartInputHandler+0x460>
    if ( !b3BufferMode )
   2226c:	10008126 	beq	r2,zero,22474 <StartInputHandler+0x424>
                    SyncType0x1C33 = SYNCTYPE_DCSYNC0;
   22270:	00800084 	movi	r2,2

    /* If no free run is supported the EscInt is always enabled*/
        if (( SyncType0x1C32 != SYNCTYPE_FREERUN ) || ( SyncType0x1C33 != SYNCTYPE_FREERUN ))
        {
        /* ECAT Synchron Mode, the ESC interrupt is enabled */
        bEscIntEnabled = TRUE;
   22274:	00c00044 	movi	r3,1
   22278:	d0e15b45 	stb	r3,-31379(gp)
    }

        /* Update value for AL Event Mask register (0x204) */
        if(bEscIntEnabled)
   2227c:	0007883a 	mov	r3,zero
   22280:	00005906 	br	223e8 <StartInputHandler+0x398>
            if (cycleTimeSync0 != 0 && (cycleTimeSync0 < curMinCycleTime || cycleTimeSync0 > MAX_PD_CYCLE_TIME))
   22284:	3a014b36 	bltu	r7,r8,227b4 <StartInputHandler+0x764>
   22288:	0230d434 	movhi	r8,50000
   2228c:	41c14936 	bltu	r8,r7,227b4 <StartInputHandler+0x764>
        if(((dcControl & ESC_DC_SYNC0_ACTIVE_MASK) != 0) && ((dcControl & ESC_DC_SYNC1_ACTIVE_MASK) != 0))
   22290:	318001a0 	cmpeqi	r6,r6,6
   22294:	303feb26 	beq	r6,zero,22244 <StartInputHandler+0x1f4>
            if((shiftTimeSync1 > 0) && (shiftTimeSync1 >= cycleTimeSync0))
   22298:	a83fea26 	beq	r21,zero,22244 <StartInputHandler+0x1f4>
   2229c:	a9ffe936 	bltu	r21,r7,22244 <StartInputHandler+0x1f4>
        if(bSubordinatedCycles && ((u16MinSuppSyncType & SYNCTYPE_SUBCYCLESUPP) == 0))
   222a0:	2100040c 	andi	r4,r4,16
   222a4:	20002026 	beq	r4,zero,22328 <StartInputHandler+0x2d8>
    if(bSyncSetByUser)
   222a8:	d1216d83 	ldbu	r4,-31306(gp)
   222ac:	2000151e 	bne	r4,zero,22304 <StartInputHandler+0x2b4>
            if (nPdOutputSize > 0)
   222b0:	d0e1580b 	ldhu	r3,-31392(gp)
                if (nPdInputSize > 0)
   222b4:	d0a1588b 	ldhu	r2,-31390(gp)
            if (nPdOutputSize > 0)
   222b8:	18003c1e 	bne	r3,zero,223ac <StartInputHandler+0x35c>
                bSubordinatedCycles = TRUE;
   222bc:	01000044 	movi	r4,1
   222c0:	003fe506 	br	22258 <StartInputHandler+0x208>
            if((SyncType0x1C32 == SYNCTYPE_DCSYNC0) || (SyncType0x1C32 == SYNCTYPE_DCSYNC1)
   222c4:	193fff84 	addi	r4,r3,-2
   222c8:	213fffcc 	andi	r4,r4,65535
   222cc:	210000b0 	cmpltui	r4,r4,2
   222d0:	2000151e 	bne	r4,zero,22328 <StartInputHandler+0x2d8>
                ||(SyncType0x1C33 == SYNCTYPE_DCSYNC0) || (SyncType0x1C33 == SYNCTYPE_DCSYNC1))
   222d4:	113fff84 	addi	r4,r2,-2
   222d8:	213fffcc 	andi	r4,r4,65535
   222dc:	210000b0 	cmpltui	r4,r4,2
   222e0:	2000111e 	bne	r4,zero,22328 <StartInputHandler+0x2d8>
   222e4:	3009883a 	mov	r4,r6
    if ( !b3BufferMode )
   222e8:	d1a15b03 	ldbu	r6,-31380(gp)
   222ec:	197fffcc 	andi	r5,r3,65535
   222f0:	3000761e 	bne	r6,zero,224cc <StartInputHandler+0x47c>
        if (( SyncType0x1C32 == SYNCTYPE_FREERUN ) || ( SyncType0x1C33 == SYNCTYPE_FREERUN ))
   222f4:	28005f26 	beq	r5,zero,22474 <StartInputHandler+0x424>
   222f8:	117fffcc 	andi	r5,r2,65535
   222fc:	2800381e 	bne	r5,zero,223e0 <StartInputHandler+0x390>
   22300:	00005c06 	br	22474 <StartInputHandler+0x424>
                bSubordinatedCycles = TRUE;
   22304:	01000044 	movi	r4,1
            if((dcControl & ESC_DC_SYNC1_ACTIVE_MASK) == 0)
   22308:	2940010c 	andi	r5,r5,4
   2230c:	19bfffcc 	andi	r6,r3,65535
   22310:	2800491e 	bne	r5,zero,22438 <StartInputHandler+0x3e8>
                if((SyncType0x1C32 == (UINT16)SYNCTYPE_DCSYNC1)
   22314:	314000e0 	cmpeqi	r5,r6,3
   22318:	2800031e 	bne	r5,zero,22328 <StartInputHandler+0x2d8>
                    ||(SyncType0x1C33 == (UINT16)SYNCTYPE_DCSYNC1))
   2231c:	117fffcc 	andi	r5,r2,65535
   22320:	294000e0 	cmpeqi	r5,r5,3
   22324:	28004626 	beq	r5,zero,22440 <StartInputHandler+0x3f0>
            return ALSTATUSCODE_DCINVALIDSYNCCFG;
   22328:	00800c04 	movi	r2,48
   2232c:	00005206 	br	22478 <StartInputHandler+0x428>
    BOOL bSubordinatedCycles = FALSE;
   22330:	0009883a 	mov	r4,zero
   22334:	003ff406 	br	22308 <StartInputHandler+0x2b8>
            else if (nPdInputSize > 0)
   22338:	d0a15b03 	ldbu	r2,-31380(gp)
   2233c:	18004c1e 	bne	r3,zero,22470 <StartInputHandler+0x420>
    if ( !b3BufferMode )
   22340:	10004c26 	beq	r2,zero,22474 <StartInputHandler+0x424>
        if(bEscIntEnabled)
   22344:	d0a15b43 	ldbu	r2,-31379(gp)
   22348:	1000681e 	bne	r2,zero,224ec <StartInputHandler+0x49c>
   2234c:	0007883a 	mov	r3,zero
            }
        }



    sSyncManOutPar.u16SyncType = SyncType0x1C32;
   22350:	80c0008d 	sth	r3,2(r16)
    LatchInputSync0Counter = 0;
    u16SmSync0Value = 0;
    u16SmSync0Counter = 0;


    if(bSubordinatedCycles == TRUE)
   22354:	24003fcc 	andi	r16,r4,255
    sSyncManInPar.u16SyncType = SyncType0x1C33;
   22358:	9080008d 	sth	r2,2(r18)
    LatchInputSync0Value = 0;
   2235c:	d0215c8d 	sth	zero,-31374(gp)
    LatchInputSync0Counter = 0;
   22360:	d0215c0d 	sth	zero,-31376(gp)
    u16SmSync0Value = 0;
   22364:	d021608d 	sth	zero,-31358(gp)
    u16SmSync0Counter = 0;
   22368:	d021610d 	sth	zero,-31356(gp)
    if(bSubordinatedCycles == TRUE)
   2236c:	81000058 	cmpnei	r4,r16,1
   22370:	2000d31e 	bne	r4,zero,226c0 <StartInputHandler+0x670>
    {
        
        UINT32 cycleTimeSync1 = (shiftTimeSync1 + cycleTimeSync0);
   22374:	dc800317 	ldw	r18,12(sp)
   22378:	aca7883a 	add	r19,r21,r18

        /* get the number of Sync0 event within on SM cycle */
        if(shiftTimeSync1 >= cycleTimeSync0)
        {

            u16SmSync0Value = (UINT16)(cycleTimeSync1 / cycleTimeSync0);
   2237c:	900b883a 	mov	r5,r18
   22380:	9809883a 	mov	r4,r19
   22384:	0026f640 	call	26f64 <__udivsi3>
            
            if((cycleTimeSync1 % cycleTimeSync0) == 0)
   22388:	900b883a 	mov	r5,r18
   2238c:	9809883a 	mov	r4,r19
            u16SmSync0Value = (UINT16)(cycleTimeSync1 / cycleTimeSync0);
   22390:	1023883a 	mov	r17,r2
            if((cycleTimeSync1 % cycleTimeSync0) == 0)
   22394:	0026fc80 	call	26fc8 <__umodsi3>
        if(shiftTimeSync1 >= cycleTimeSync0)
   22398:	ac80c636 	bltu	r21,r18,226b4 <StartInputHandler+0x664>
            if((cycleTimeSync1 % cycleTimeSync0) == 0)
   2239c:	10006c26 	beq	r2,zero,22550 <StartInputHandler+0x500>
            u16SmSync0Value = (UINT16)(cycleTimeSync1 / cycleTimeSync0);
   223a0:	d461608d 	sth	r17,-31358(gp)
        /* Calculate the Sync0 tick on which the inputs shall be latched (last Sync0 before the next Sync1 event)*/
        LatchInputSync0Value = (UINT16) (cycleTimeSync1 / cycleTimeSync0);

        if ((cycleTimeSync1 % cycleTimeSync0) > 0)
        {
            LatchInputSync0Value++;
   223a4:	8c400044 	addi	r17,r17,1
   223a8:	00006b06 	br	22558 <StartInputHandler+0x508>
            if (nPdInputSize > 0)
   223ac:	10ffffcc 	andi	r3,r2,65535
   223b0:	18000326 	beq	r3,zero,223c0 <StartInputHandler+0x370>
                if ((dcControl & ESC_DC_SYNC1_ACTIVE_MASK) != 0)
   223b4:	2940010c 	andi	r5,r5,4
   223b8:	28002b26 	beq	r5,zero,22468 <StartInputHandler+0x418>
                    SyncType0x1C33 = SYNCTYPE_DCSYNC1;
   223bc:	008000c4 	movi	r2,3
                if ((dcControl & ESC_DC_SYNC1_ACTIVE_MASK) != 0)
   223c0:	01000044 	movi	r4,1
    if ( !b3BufferMode )
   223c4:	d0e15b03 	ldbu	r3,-31380(gp)
        sSyncManOutPar.u32Sync0CycleTime = (UINT32)cycleTimeSync0;
   223c8:	81c00915 	stw	r7,36(r16)
        sSyncManOutPar.u32CycleTime = (UINT32)cycleTimeSync0;
   223cc:	81c00115 	stw	r7,4(r16)
        sSyncManInPar.u32Sync0CycleTime = (UINT32)cycleTimeSync0;
   223d0:	91c00915 	stw	r7,36(r18)
        sSyncManInPar.u32CycleTime = (UINT32)cycleTimeSync0;
   223d4:	91c00115 	stw	r7,4(r18)
    if ( !b3BufferMode )
   223d8:	18003826 	beq	r3,zero,224bc <StartInputHandler+0x46c>
   223dc:	00c000c4 	movi	r3,3
        bEscIntEnabled = TRUE;
   223e0:	01400044 	movi	r5,1
   223e4:	d1615b45 	stb	r5,-31379(gp)
            if(nPdOutputSize > 0)
   223e8:	d1a1580b 	ldhu	r6,-31392(gp)
   223ec:	197fff84 	addi	r5,r3,-2
   223f0:	30004026 	beq	r6,zero,224f4 <StartInputHandler+0x4a4>
                u16ALEventMask = PROCESS_OUTPUT_EVENT;
   223f4:	01810004 	movi	r6,1024
        if ((SyncType0x1C32 == SYNCTYPE_DCSYNC0) || (SyncType0x1C32 == SYNCTYPE_DCSYNC1)
   223f8:	297fffcc 	andi	r5,r5,65535
                u16ALEventMask = PROCESS_OUTPUT_EVENT;
   223fc:	d1a1548d 	sth	r6,-31406(gp)
        if ((SyncType0x1C32 == SYNCTYPE_DCSYNC0) || (SyncType0x1C32 == SYNCTYPE_DCSYNC1)
   22400:	294000a8 	cmpgeui	r5,r5,2
   22404:	2800461e 	bne	r5,zero,22520 <StartInputHandler+0x4d0>
            bDcSyncActive = TRUE;
   22408:	01400044 	movi	r5,1
   2240c:	d1616285 	stb	r5,-31350(gp)
            if (nPdOutputSize == 0)
   22410:	003fcf06 	br	22350 <StartInputHandler+0x300>
            if (nPdInputSize > 0)
   22414:	d0a1588b 	ldhu	r2,-31390(gp)
   22418:	10ffffcc 	andi	r3,r2,65535
   2241c:	18000426 	beq	r3,zero,22430 <StartInputHandler+0x3e0>
                if ((dcControl & ESC_DC_SYNC1_ACTIVE_MASK) != 0)
   22420:	2940010c 	andi	r5,r5,4
   22424:	2809883a 	mov	r4,r5
   22428:	28001f26 	beq	r5,zero,224a8 <StartInputHandler+0x458>
                    SyncType0x1C33 = SYNCTYPE_DCSYNC1;
   2242c:	008000c4 	movi	r2,3
            if (nPdInputSize > 0)
   22430:	0009883a 	mov	r4,zero
   22434:	00000406 	br	22448 <StartInputHandler+0x3f8>
    if(SyncType0x1C32 == SYNCTYPE_DCSYNC1)
   22438:	314000d8 	cmpnei	r5,r6,3
   2243c:	283fe126 	beq	r5,zero,223c4 <StartInputHandler+0x374>
    else if(SyncType0x1C32 == SYNCTYPE_DCSYNC0)
   22440:	31800098 	cmpnei	r6,r6,2
   22444:	303fa81e 	bne	r6,zero,222e8 <StartInputHandler+0x298>
    if ( !b3BufferMode )
   22448:	d0e15b03 	ldbu	r3,-31380(gp)
        sSyncManOutPar.u32Sync0CycleTime = (UINT32)cycleTimeSync0;
   2244c:	81c00915 	stw	r7,36(r16)
        sSyncManOutPar.u32CycleTime = (UINT32)cycleTimeSync0;
   22450:	81c00115 	stw	r7,4(r16)
        sSyncManInPar.u32Sync0CycleTime = (UINT32)cycleTimeSync0;
   22454:	91c00915 	stw	r7,36(r18)
        sSyncManInPar.u32CycleTime = (UINT32)cycleTimeSync0;
   22458:	91c00115 	stw	r7,4(r18)
    if ( !b3BufferMode )
   2245c:	18001926 	beq	r3,zero,224c4 <StartInputHandler+0x474>
   22460:	00c00084 	movi	r3,2
   22464:	003fde06 	br	223e0 <StartInputHandler+0x390>
                    SyncType0x1C33 = SYNCTYPE_DCSYNC0;
   22468:	00800084 	movi	r2,2
   2246c:	003fd406 	br	223c0 <StartInputHandler+0x370>
    if ( !b3BufferMode )
   22470:	10001a1e 	bne	r2,zero,224dc <StartInputHandler+0x48c>
                return ALSTATUSCODE_FREERUNNEEDS3BUFFERMODE;
   22474:	00800a44 	movi	r2,41

    /*write initial input data*/
    PDO_InputMapping();

    return ALSTATUSCODE_NOERROR;
}
   22478:	dfc00e17 	ldw	ra,56(sp)
   2247c:	df000d17 	ldw	fp,52(sp)
   22480:	ddc00c17 	ldw	r23,48(sp)
   22484:	dd800b17 	ldw	r22,44(sp)
   22488:	dd400a17 	ldw	r21,40(sp)
   2248c:	dd000917 	ldw	r20,36(sp)
   22490:	dcc00817 	ldw	r19,32(sp)
   22494:	dc800717 	ldw	r18,28(sp)
   22498:	dc400617 	ldw	r17,24(sp)
   2249c:	dc000517 	ldw	r16,20(sp)
   224a0:	dec00f04 	addi	sp,sp,60
   224a4:	f800283a 	ret
                    SyncType0x1C33 = SYNCTYPE_DCSYNC0;
   224a8:	00800084 	movi	r2,2
   224ac:	003fe606 	br	22448 <StartInputHandler+0x3f8>
    if ( !b3BufferMode )
   224b0:	103ff026 	beq	r2,zero,22474 <StartInputHandler+0x424>
                    SyncType0x1C33 = SYNCTYPE_DCSYNC1;
   224b4:	008000c4 	movi	r2,3
   224b8:	003f6e06 	br	22274 <StartInputHandler+0x224>
    if ( !b3BufferMode )
   224bc:	00c000c4 	movi	r3,3
   224c0:	003f8d06 	br	222f8 <StartInputHandler+0x2a8>
   224c4:	00c00084 	movi	r3,2
   224c8:	003f8b06 	br	222f8 <StartInputHandler+0x2a8>
        if (( SyncType0x1C32 != SYNCTYPE_FREERUN ) || ( SyncType0x1C33 != SYNCTYPE_FREERUN ))
   224cc:	283fc41e 	bne	r5,zero,223e0 <StartInputHandler+0x390>
   224d0:	10ffffcc 	andi	r3,r2,65535
   224d4:	183f9b26 	beq	r3,zero,22344 <StartInputHandler+0x2f4>
   224d8:	003f6606 	br	22274 <StartInputHandler+0x224>
                SyncType0x1C33 = SYNCTYPE_SM_SYNCHRON;
   224dc:	00800044 	movi	r2,1
   224e0:	003f6406 	br	22274 <StartInputHandler+0x224>
                    SyncType0x1C33 = SYNCTYPE_SM2_SYNCHRON;
   224e4:	00800884 	movi	r2,34
   224e8:	003f3e06 	br	221e4 <StartInputHandler+0x194>
        if(bEscIntEnabled)
   224ec:	0005883a 	mov	r2,zero
   224f0:	003f6206 	br	2227c <StartInputHandler+0x22c>
            else if(nPdInputSize > 0)
   224f4:	d1a1588b 	ldhu	r6,-31390(gp)
   224f8:	30000226 	beq	r6,zero,22504 <StartInputHandler+0x4b4>
                u16ALEventMask = PROCESS_INPUT_EVENT;
   224fc:	01820004 	movi	r6,2048
   22500:	d1a1548d 	sth	r6,-31406(gp)
        if ((SyncType0x1C32 == SYNCTYPE_DCSYNC0) || (SyncType0x1C32 == SYNCTYPE_DCSYNC1)
   22504:	297fffcc 	andi	r5,r5,65535
   22508:	294000b0 	cmpltui	r5,r5,2
   2250c:	28000a26 	beq	r5,zero,22538 <StartInputHandler+0x4e8>
            bDcSyncActive = TRUE;
   22510:	01400044 	movi	r5,1
   22514:	d1616285 	stb	r5,-31350(gp)
               u16ALEventMask = 0;
   22518:	d021548d 	sth	zero,-31406(gp)
   2251c:	003f8c06 	br	22350 <StartInputHandler+0x300>
            || (SyncType0x1C33 == SYNCTYPE_DCSYNC0) || (SyncType0x1C33 == SYNCTYPE_DCSYNC1))/* Sync to Sync0 or Sync1 is enabled*/
   22520:	117fffcc 	andi	r5,r2,65535
   22524:	29800098 	cmpnei	r6,r5,2
   22528:	303fb726 	beq	r6,zero,22408 <StartInputHandler+0x3b8>
   2252c:	294000d8 	cmpnei	r5,r5,3
   22530:	283fb526 	beq	r5,zero,22408 <StartInputHandler+0x3b8>
   22534:	003f8606 	br	22350 <StartInputHandler+0x300>
   22538:	117fffcc 	andi	r5,r2,65535
   2253c:	298000a0 	cmpeqi	r6,r5,2
   22540:	303ff31e 	bne	r6,zero,22510 <StartInputHandler+0x4c0>
   22544:	294000d8 	cmpnei	r5,r5,3
   22548:	283ff126 	beq	r5,zero,22510 <StartInputHandler+0x4c0>
   2254c:	003f8006 	br	22350 <StartInputHandler+0x300>
                u16SmSync0Value ++;
   22550:	88800044 	addi	r2,r17,1
   22554:	d0a1608d 	sth	r2,-31358(gp)
            LatchInputSync0Value++;
   22558:	d4615c8d 	sth	r17,-31374(gp)
    HW_EscReadWord(wd, ESC_PD_WD_TIME);
   2255c:	01800084 	movi	r6,2
   22560:	01410804 	movi	r5,1056
   22564:	d9000284 	addi	r4,sp,10
    sCycleDiag.syncFailedCounter = 0;
   22568:	d0216d0d 	sth	zero,-31308(gp)
    HW_EscReadWord(wd, ESC_PD_WD_TIME);
   2256c:	00205e00 	call	205e0 <HW_EscRead>
    if (nPdOutputSize > 0 &&  wd != 0 )
   22570:	d0e1580b 	ldhu	r3,-31392(gp)
    wd = SWAPWORD(wd);
   22574:	d880028b 	ldhu	r2,10(sp)
    if (nPdOutputSize > 0 &&  wd != 0 )
   22578:	18005f26 	beq	r3,zero,226f8 <StartInputHandler+0x6a8>
   2257c:	10bfffcc 	andi	r2,r2,65535
   22580:	10005d26 	beq	r2,zero,226f8 <StartInputHandler+0x6a8>
    HW_EscReadWord(wdiv, ESC_WD_DIVIDER_OFFSET);
   22584:	01410004 	movi	r5,1024
   22588:	01800084 	movi	r6,2
   2258c:	d9000204 	addi	r4,sp,8
   22590:	00205e00 	call	205e0 <HW_EscRead>
        if ( wdiv != 0 )
   22594:	d940020b 	ldhu	r5,8(sp)
   22598:	28005426 	beq	r5,zero,226ec <StartInputHandler+0x69c>
            d *= wd;
   2259c:	d900028b 	ldhu	r4,10(sp)
   225a0:	29400084 	addi	r5,r5,2
   225a4:	00270240 	call	27024 <__mulsi3>
            d /= 25000;
   225a8:	01586a04 	movi	r5,25000
   225ac:	111869c4 	addi	r4,r2,24999
   225b0:	0026f640 	call	26f64 <__udivsi3>
            EcatWdValue = (UINT16) d;
   225b4:	d0a1560d 	sth	r2,-31400(gp)
    if((EcatWdValue == 0 && bWdTrigger) || (EcatWdValue != 0 && !bWdTrigger))
   225b8:	10bfffcc 	andi	r2,r2,65535
   225bc:	d0e162c3 	ldbu	r3,-31349(gp)
   225c0:	10004f1e 	bne	r2,zero,22700 <StartInputHandler+0x6b0>
   225c4:	d0a162c3 	ldbu	r2,-31349(gp)
   225c8:	10004f1e 	bne	r2,zero,22708 <StartInputHandler+0x6b8>
    if ( bEscIntEnabled && nPdOutputSize != 0 )
   225cc:	d0a15b43 	ldbu	r2,-31379(gp)
   225d0:	10004f1e 	bne	r2,zero,22710 <StartInputHandler+0x6c0>
        HW_EscReadByte(u8TmpVar, ESC_PDI_CONFIGURATION);
   225d4:	01800044 	movi	r6,1
   225d8:	01405444 	movi	r5,337
   225dc:	d90001c4 	addi	r4,sp,7
    Sync0WdValue = 0;
   225e0:	d0215e0d 	sth	zero,-31368(gp)
    Sync0WdCounter = 0;
   225e4:	d0215e8d 	sth	zero,-31366(gp)
    Sync1WdCounter = 0;
   225e8:	d0215d8d 	sth	zero,-31370(gp)
    Sync1WdValue = 0;
   225ec:	d0215d0d 	sth	zero,-31372(gp)
    bDcRunning = FALSE;
   225f0:	d0216185 	stb	zero,-31354(gp)
    bSmSyncSequenceValid = FALSE;
   225f4:	d0216005 	stb	zero,-31360(gp)
    i16WaitForPllRunningTimeout = 0;
   225f8:	d0215f8d 	sth	zero,-31362(gp)
        UINT8 u8TmpVar = 0;
   225fc:	d80001c5 	stb	zero,7(sp)
        HW_EscReadByte(u8TmpVar, ESC_PDI_CONFIGURATION);
   22600:	00205e00 	call	205e0 <HW_EscRead>
        if ((u8TmpVar & ESC_SYNC0_MAPPED_TO_ALEVENT) > 0)
   22604:	d88001c3 	ldbu	r2,7(sp)
   22608:	10c0020c 	andi	r3,r2,8
   2260c:	18000326 	beq	r3,zero,2261c <StartInputHandler+0x5cc>
            u16ALEventMask |= SYNC0_EVENT;
   22610:	d0e1548b 	ldhu	r3,-31406(gp)
   22614:	18c00114 	ori	r3,r3,4
   22618:	d0e1548d 	sth	r3,-31406(gp)
        if ((u8TmpVar & ESC_SYNC1_MAPPED_TO_ALEVENT) > 0)
   2261c:	10803fcc 	andi	r2,r2,255
   22620:	1080201c 	xori	r2,r2,128
   22624:	10bfe004 	addi	r2,r2,-128
   22628:	1000030e 	bge	r2,zero,22638 <StartInputHandler+0x5e8>
            u16ALEventMask |= SYNC1_EVENT;
   2262c:	d0a1548b 	ldhu	r2,-31406(gp)
   22630:	10800214 	ori	r2,r2,8
   22634:	d0a1548d 	sth	r2,-31406(gp)
    sSyncManInPar.u16SmEventMissedCounter = 0;
   22638:	008000f4 	movhi	r2,3
    if ( (dcControl & ESC_DC_SYNC0_ACTIVE_MASK) != 0 )
   2263c:	dc400183 	ldbu	r17,6(sp)
    sSyncManInPar.u16SmEventMissedCounter = 0;
   22640:	10232b15 	stw	zero,-29524(r2)
    sSyncManInPar.u8SyncError = 0;
   22644:	008000f4 	movhi	r2,3
   22648:	10233105 	stb	zero,-29500(r2)
    sSyncManOutPar.u16SmEventMissedCounter = 0;
   2264c:	008000f4 	movhi	r2,3
   22650:	10233c15 	stw	zero,-29456(r2)
    sSyncManOutPar.u8SyncError = 0;
   22654:	008000f4 	movhi	r2,3
   22658:	10234205 	stb	zero,-29432(r2)
    if ( (dcControl & ESC_DC_SYNC0_ACTIVE_MASK) != 0 )
   2265c:	8880008c 	andi	r2,r17,2
   22660:	10004126 	beq	r2,zero,22768 <StartInputHandler+0x718>
        if(cycleTimeSync0 == 0)
   22664:	dc000317 	ldw	r16,12(sp)
   22668:	8c40010c 	andi	r17,r17,4
   2266c:	80002e1e 	bne	r16,zero,22728 <StartInputHandler+0x6d8>
            Sync0WdValue = 0;
   22670:	d0215e0d 	sth	zero,-31368(gp)
        if ( (dcControl & ESC_DC_SYNC1_ACTIVE_MASK) != 0 )
   22674:	88003c26 	beq	r17,zero,22768 <StartInputHandler+0x718>
            if(shiftTimeSync1 < cycleTimeSync0)
   22678:	d8c00417 	ldw	r3,16(sp)
                if(Sync1Cycle < 5)
   2267c:	00800234 	movhi	r2,8
                UINT32 Sync1Cycle = (shiftTimeSync1  + cycleTimeSync0 )/100000;
   22680:	80c9883a 	add	r4,r16,r3
                if(Sync1Cycle < 5)
   22684:	10a847c4 	addi	r2,r2,-24289
   22688:	1100442e 	bgeu	r2,r4,2279c <StartInputHandler+0x74c>
                UINT32 Sync1Cycle = (shiftTimeSync1  + cycleTimeSync0 )/100000;
   2268c:	014000b4 	movhi	r5,2
   22690:	2961a804 	addi	r5,r5,-31072
   22694:	0026f640 	call	26f64 <__udivsi3>
                    Sync1WdValue = (UINT16)((Sync1Cycle*2)/10);
   22698:	1008907a 	slli	r4,r2,1
   2269c:	01400284 	movi	r5,10
   226a0:	0026f640 	call	26f64 <__udivsi3>
                Sync1WdValue += Sync0WdValue/2;
   226a4:	d0e15e0b 	ldhu	r3,-31368(gp)
   226a8:	1806d07a 	srli	r3,r3,1
   226ac:	1885883a 	add	r2,r3,r2
   226b0:	00002c06 	br	22764 <StartInputHandler+0x714>
            u16SmSync0Value = 1;
   226b4:	d421608d 	sth	r16,-31358(gp)
        if ((cycleTimeSync1 % cycleTimeSync0) > 0)
   226b8:	103f3a1e 	bne	r2,zero,223a4 <StartInputHandler+0x354>
   226bc:	003fa606 	br	22558 <StartInputHandler+0x508>
        if(SyncType0x1C32 == SYNCTYPE_DCSYNC0)
   226c0:	18ffffcc 	andi	r3,r3,65535
   226c4:	18c00098 	cmpnei	r3,r3,2
   226c8:	1800021e 	bne	r3,zero,226d4 <StartInputHandler+0x684>
            u16SmSync0Value = 1;
   226cc:	00c00044 	movi	r3,1
   226d0:	d0e1608d 	sth	r3,-31358(gp)
        if(SyncType0x1C33 != SYNCTYPE_DCSYNC1)
   226d4:	10bfffcc 	andi	r2,r2,65535
   226d8:	108000e0 	cmpeqi	r2,r2,3
   226dc:	103f9f1e 	bne	r2,zero,2255c <StartInputHandler+0x50c>
            LatchInputSync0Value = 1;
   226e0:	00800044 	movi	r2,1
   226e4:	d0a15c8d 	sth	r2,-31374(gp)
   226e8:	003f9c06 	br	2255c <StartInputHandler+0x50c>
            wd = 0;
   226ec:	d800028d 	sth	zero,10(sp)
        EcatWdValue = 0;
   226f0:	d021560d 	sth	zero,-31400(gp)
   226f4:	003fb306 	br	225c4 <StartInputHandler+0x574>
        wdiv = 0;
   226f8:	d800020d 	sth	zero,8(sp)
   226fc:	003ffc06 	br	226f0 <StartInputHandler+0x6a0>
    if((EcatWdValue == 0 && bWdTrigger) || (EcatWdValue != 0 && !bWdTrigger))
   22700:	18803fcc 	andi	r2,r3,255
   22704:	103fb11e 	bne	r2,zero,225cc <StartInputHandler+0x57c>
        return ALSTATUSCODE_INVALIDWDCFG;
   22708:	008007c4 	movi	r2,31
   2270c:	003f5a06 	br	22478 <StartInputHandler+0x428>
    if ( bEscIntEnabled && nPdOutputSize != 0 )
   22710:	d0a1580b 	ldhu	r2,-31392(gp)
   22714:	103faf26 	beq	r2,zero,225d4 <StartInputHandler+0x584>
        u16ALEventMask |= PROCESS_OUTPUT_EVENT;
   22718:	d0a1548b 	ldhu	r2,-31406(gp)
   2271c:	10810014 	ori	r2,r2,1024
   22720:	d0a1548d 	sth	r2,-31406(gp)
   22724:	003fab06 	br	225d4 <StartInputHandler+0x584>
            if(Sync0Cycle < 5)
   22728:	00800234 	movhi	r2,8
   2272c:	10a847c4 	addi	r2,r2,-24289
   22730:	1400182e 	bgeu	r2,r16,22794 <StartInputHandler+0x744>
            UINT32 Sync0Cycle = cycleTimeSync0/100000;
   22734:	014000b4 	movhi	r5,2
   22738:	2961a804 	addi	r5,r5,-31072
   2273c:	8009883a 	mov	r4,r16
   22740:	0026f640 	call	26f64 <__udivsi3>
                Sync0WdValue = (UINT16)(Sync0Cycle*2)/10;
   22744:	1008907a 	slli	r4,r2,1
   22748:	01400284 	movi	r5,10
   2274c:	213fff8c 	andi	r4,r4,65534
   22750:	0026f640 	call	26f64 <__udivsi3>
   22754:	d0a15e0d 	sth	r2,-31368(gp)
        if ( (dcControl & ESC_DC_SYNC1_ACTIVE_MASK) != 0 )
   22758:	88000326 	beq	r17,zero,22768 <StartInputHandler+0x718>
            if(shiftTimeSync1 < cycleTimeSync0)
   2275c:	d8c00417 	ldw	r3,16(sp)
   22760:	1c3fc62e 	bgeu	r3,r16,2267c <StartInputHandler+0x62c>
                Sync1WdValue += Sync0WdValue/2;
   22764:	d0a15d0d 	sth	r2,-31372(gp)
    if(nPdOutputSize > 0)
   22768:	d0a1580b 	ldhu	r2,-31392(gp)
   2276c:	10000226 	beq	r2,zero,22778 <StartInputHandler+0x728>
        EnableSyncManChannel(PROCESS_DATA_OUT);
   22770:	01000084 	movi	r4,2
   22774:	0021d840 	call	21d84 <EnableSyncManChannel>
    if(nPdInputSize > 0)
   22778:	d0a1588b 	ldhu	r2,-31390(gp)
   2277c:	10000226 	beq	r2,zero,22788 <StartInputHandler+0x738>
        EnableSyncManChannel(PROCESS_DATA_IN);
   22780:	010000c4 	movi	r4,3
   22784:	0021d840 	call	21d84 <EnableSyncManChannel>
    PDO_InputMapping();
   22788:	0020d640 	call	20d64 <PDO_InputMapping>
    return ALSTATUSCODE_NOERROR;
   2278c:	0005883a 	mov	r2,zero
   22790:	003f3906 	br	22478 <StartInputHandler+0x428>
   22794:	00800044 	movi	r2,1
   22798:	003fee06 	br	22754 <StartInputHandler+0x704>
   2279c:	00800044 	movi	r2,1
   227a0:	003fc006 	br	226a4 <StartInputHandler+0x654>
        return ALSTATUSCODE_INVALIDSMINCFG;
   227a4:	00800784 	movi	r2,30
   227a8:	003f3306 	br	22478 <StartInputHandler+0x428>
        return ALSTATUSCODE_INVALIDSMOUTCFG;
   227ac:	00800744 	movi	r2,29
   227b0:	003f3106 	br	22478 <StartInputHandler+0x428>
                    return ALSTATUSCODE_DCSYNC0CYCLETIME;
   227b4:	00800d84 	movi	r2,54
   227b8:	003f2f06 	br	22478 <StartInputHandler+0x428>

000227bc <StartOutputHandler>:
    /* by default the SO transition should be completed in AlControlRes().
       required to support also masters which starts to send process data after the SO transition was triggered
       (if the master don't send process data within "SAFEOP2OPTIMEOUT" the transition is rejected)*/
    UINT16 result = NOERROR_INWORK;
    /*ECATCHANGE_START(V5.13) ESM1*/
    if(STATE_VALID(u8LocalErrorState))
   227bc:	d0e15a03 	ldbu	r3,-31384(gp)
   227c0:	00804584 	movi	r2,278
   227c4:	18c003cc 	andi	r3,r3,15
   227c8:	10c4d83a 	srl	r2,r2,r3
   227cc:	1080004c 	andi	r2,r2,1
   227d0:	10000226 	beq	r2,zero,227dc <StartOutputHandler+0x20>
/*ECATCHANGE_END(V5.13) ESM1*/
    {
        /*Local error still exists => skip state request to OP and response with "u16LocalErrorCode"*/
        return u16LocalErrorCode;
   227d4:	d0a15a8b 	ldhu	r2,-31382(gp)
   227d8:	f800283a 	ret
    }
/*The application ESM function is separated from this function to handle pending transitions*/


    /*DC synchronisation is active wait until pll is valid*/
    if(bDcSyncActive)
   227dc:	d0a16283 	ldbu	r2,-31350(gp)
   227e0:	10000326 	beq	r2,zero,227f0 <StartOutputHandler+0x34>
    {
        i16WaitForPllRunningTimeout = 200;
   227e4:	00803204 	movi	r2,200
   227e8:	d0a15f8d 	sth	r2,-31362(gp)

        i16WaitForPllRunningCnt = 0;
   227ec:	d0215f0d 	sth	zero,-31364(gp)
    }



    sSyncManOutPar.u16SmEventMissedCounter = 0;
   227f0:	008000f4 	movhi	r2,3
   227f4:	10233c0d 	sth	zero,-29456(r2)
    sSyncManOutPar.u8SyncError = 0;
   227f8:	008000f4 	movhi	r2,3
   227fc:	10234205 	stb	zero,-29432(r2)


    sSyncManInPar.u16SmEventMissedCounter = 0;
   22800:	008000f4 	movhi	r2,3
   22804:	10232b0d 	sth	zero,-29524(r2)
    sSyncManInPar.u8SyncError = 0;
   22808:	008000f4 	movhi	r2,3
   2280c:	10233105 	stb	zero,-29500(r2)
   22810:	00803fc4 	movi	r2,255


    return result;
}
   22814:	f800283a 	ret

00022818 <StopOutputHandler>:
*////////////////////////////////////////////////////////////////////////////////////////

void StopOutputHandler(void)
{
    /* reset the flags that outputs were received and that the slave is in OP */
    bEcatFirstOutputsReceived = FALSE;
   22818:	d0216305 	stb	zero,-31348(gp)
    bEcatOutputUpdateRunning = FALSE;
   2281c:	d0216385 	stb	zero,-31346(gp)
}
   22820:	f800283a 	ret

00022824 <StopInputHandler>:

*////////////////////////////////////////////////////////////////////////////////////////

void StopInputHandler(void)
{
    if(nPdOutputSize > 0)
   22824:	d0a1580b 	ldhu	r2,-31392(gp)
{
   22828:	deffff04 	addi	sp,sp,-4
   2282c:	dfc00015 	stw	ra,0(sp)
    if(nPdOutputSize > 0)
   22830:	10000226 	beq	r2,zero,2283c <StopInputHandler+0x18>
    {
        /* disable the Sync Manager Channel 2 (outputs) */
        DisableSyncManChannel(PROCESS_DATA_OUT);
   22834:	01000084 	movi	r4,2
   22838:	0021d240 	call	21d24 <DisableSyncManChannel>
    }

    if(nPdInputSize > 0)
   2283c:	d0a1588b 	ldhu	r2,-31390(gp)
   22840:	10000226 	beq	r2,zero,2284c <StopInputHandler+0x28>
    {
        /*disable Sync Manager 3 (inputs) if no outputs available*/
        DisableSyncManChannel(PROCESS_DATA_IN);
   22844:	010000c4 	movi	r4,3
   22848:	0021d240 	call	21d24 <DisableSyncManChannel>
    {
        UINT16 ResetMask = SYNC0_EVENT | SYNC1_EVENT;
        ResetMask |= PROCESS_OUTPUT_EVENT;
        ResetMask |= PROCESS_INPUT_EVENT;

    ResetALEventMask( ~(ResetMask) );
   2284c:	013cfcd4 	movui	r4,62451
   22850:	0021c240 	call	21c24 <ResetALEventMask>
    Sync1WdValue = 0;
    LatchInputSync0Value = 0;
    LatchInputSync0Counter = 0;


    sSyncManOutPar.u16SmEventMissedCounter = 0;
   22854:	008000f4 	movhi	r2,3
   22858:	10233c15 	stw	zero,-29456(r2)
    sSyncManOutPar.u16CycleExceededCounter = 0;
    sSyncManOutPar.u8SyncError = 0;
   2285c:	008000f4 	movhi	r2,3
   22860:	10234205 	stb	zero,-29432(r2)


    sSyncManInPar.u16SmEventMissedCounter = 0;
   22864:	008000f4 	movhi	r2,3
   22868:	10232b15 	stw	zero,-29524(r2)
    sSyncManInPar.u16CycleExceededCounter = 0;
    sSyncManInPar.u8SyncError = 0;
   2286c:	008000f4 	movhi	r2,3
    bEcatFirstOutputsReceived = FALSE;
   22870:	d0216305 	stb	zero,-31348(gp)
    bEscIntEnabled = FALSE;
   22874:	d0215b45 	stb	zero,-31379(gp)
    bDcSyncActive = FALSE;
   22878:	d0216285 	stb	zero,-31350(gp)
    bDcRunning = FALSE;
   2287c:	d0216185 	stb	zero,-31354(gp)
    bSmSyncSequenceValid = FALSE;
   22880:	d0216005 	stb	zero,-31360(gp)
    u16SmSync0Value = 0;
   22884:	d021608d 	sth	zero,-31358(gp)
    u16SmSync0Counter = 0;
   22888:	d021610d 	sth	zero,-31356(gp)
    Sync0WdValue = 0;
   2288c:	d0215e0d 	sth	zero,-31368(gp)
    Sync0WdCounter = 0;
   22890:	d0215e8d 	sth	zero,-31366(gp)
    Sync1WdCounter = 0;
   22894:	d0215d8d 	sth	zero,-31370(gp)
    Sync1WdValue = 0;
   22898:	d0215d0d 	sth	zero,-31372(gp)
    LatchInputSync0Value = 0;
   2289c:	d0215c8d 	sth	zero,-31374(gp)
    LatchInputSync0Counter = 0;
   228a0:	d0215c0d 	sth	zero,-31376(gp)
    sSyncManInPar.u8SyncError = 0;
   228a4:	10233105 	stb	zero,-29500(r2)

    i16WaitForPllRunningTimeout = 0;
   228a8:	d0215f8d 	sth	zero,-31362(gp)

    bWdTrigger = FALSE;
   228ac:	d02162c5 	stb	zero,-31349(gp)
    bEcatInputUpdateRunning = FALSE;
   228b0:	d0216345 	stb	zero,-31347(gp)

    /*Indicate no user specified Sync mode*/
    bSyncSetByUser = FALSE;
   228b4:	d0216d85 	stb	zero,-31306(gp)
}
   228b8:	dfc00017 	ldw	ra,0(sp)
   228bc:	dec00104 	addi	sp,sp,4
   228c0:	f800283a 	ret

000228c4 <BackToInitTransition>:
*////////////////////////////////////////////////////////////////////////////////////////

void BackToInitTransition(void)
{
    /* Reset indication that the user has written a sync mode*/
    bSyncSetByUser = FALSE;
   228c4:	d0216d85 	stb	zero,-31306(gp)
}
   228c8:	f800283a 	ret

000228cc <SetALStatus>:
void SetALStatus(UINT8 alStatus, UINT16 alStatusCode)
{
    UINT16 Value = alStatusCode;

    /*update global status variable if required*/
    if(nAlStatus != alStatus)
   228cc:	d0e156c3 	ldbu	r3,-31397(gp)
{
   228d0:	defffe04 	addi	sp,sp,-8
   228d4:	dfc00115 	stw	ra,4(sp)
    UINT16 Value = alStatusCode;
   228d8:	d940008d 	sth	r5,2(sp)
    if(nAlStatus != alStatus)
   228dc:	20803fcc 	andi	r2,r4,255
   228e0:	18800126 	beq	r3,r2,228e8 <SetALStatus+0x1c>
    {
        nAlStatus = alStatus;
   228e4:	d12156c5 	stb	r4,-31397(gp)
    }

    /*Handle Explicit Device ID is requested*/
    if(bExplicitDevIdRequested && !(nAlStatus & STATE_CHANGE) && alStatusCode == 0 && ((nAlStatus & STATE_MASK) != STATE_BOOT))
   228e8:	d0e15683 	ldbu	r3,-31398(gp)
   228ec:	d0a156c3 	ldbu	r2,-31397(gp)
   228f0:	297fffcc 	andi	r5,r5,65535
   228f4:	18001126 	beq	r3,zero,2293c <SetALStatus+0x70>
   228f8:	10c0040c 	andi	r3,r2,16
   228fc:	18000f1e 	bne	r3,zero,2293c <SetALStatus+0x70>
   22900:	28000e1e 	bne	r5,zero,2293c <SetALStatus+0x70>
   22904:	10c003cc 	andi	r3,r2,15
   22908:	18c000e0 	cmpeqi	r3,r3,3
   2290c:	1800091e 	bne	r3,zero,22934 <SetALStatus+0x68>
    {
/*ECATCHANGE_START(V5.13) ECAT2*/
        Value = u16IdValue;
   22910:	d0e1540b 	ldhu	r3,-31408(gp)
/*ECATCHANGE_END(V5.13) ECAT2*/
        nAlStatus |= STATE_DEVID;
   22914:	10800814 	ori	r2,r2,32
        Value = u16IdValue;
   22918:	d8c0008d 	sth	r3,2(sp)
    }
    else
    {
        nAlStatus &= ~STATE_DEVID;
   2291c:	d0a156c5 	stb	r2,-31397(gp)

    if (alStatusCode != 0xFFFF)
    {
        Value = SWAPWORD(Value);

        HW_EscWriteWord(Value,ESC_AL_STATUS_CODE_OFFSET);
   22920:	01800084 	movi	r6,2
   22924:	01404d04 	movi	r5,308
   22928:	d9000084 	addi	r4,sp,2
   2292c:	00206640 	call	20664 <HW_EscWrite>
   22930:	00000606 	br	2294c <SetALStatus+0x80>
        nAlStatus &= ~STATE_DEVID;
   22934:	108037cc 	andi	r2,r2,223
   22938:	003ff806 	br	2291c <SetALStatus+0x50>
   2293c:	108037cc 	andi	r2,r2,223
   22940:	d0a156c5 	stb	r2,-31397(gp)
    if (alStatusCode != 0xFFFF)
   22944:	00bfffd4 	movui	r2,65535
   22948:	28bff51e 	bne	r5,r2,22920 <SetALStatus+0x54>
    }

    Value = nAlStatus;
   2294c:	d0a156c3 	ldbu	r2,-31397(gp)
    Value = SWAPWORD(Value);
    HW_EscWriteWord(Value,ESC_AL_STATUS_OFFSET);
   22950:	01800084 	movi	r6,2
   22954:	01404c04 	movi	r5,304
   22958:	d9000084 	addi	r4,sp,2
    Value = nAlStatus;
   2295c:	d880008d 	sth	r2,2(sp)
    HW_EscWriteWord(Value,ESC_AL_STATUS_OFFSET);
   22960:	00206640 	call	20664 <HW_EscWrite>

}
   22964:	dfc00117 	ldw	ra,4(sp)
   22968:	dec00204 	addi	sp,sp,8
   2296c:	f800283a 	ret

00022970 <AL_ControlInd>:
{
    UINT16        result = 0;
    UINT8            bErrAck = 0;
    UINT8         stateTrans;
    /*deactivate ESM timeout counter*/
    EsmTimeoutCounter = -1;
   22970:	00bfffc4 	movi	r2,-1
{
   22974:	defff704 	addi	sp,sp,-36
    EsmTimeoutCounter = -1;
   22978:	d0a1620d 	sth	r2,-31352(gp)
    bApplEsmPending = TRUE;
   2297c:	00800044 	movi	r2,1
{
   22980:	dd800615 	stw	r22,24(sp)
   22984:	dd400515 	stw	r21,20(sp)
   22988:	dd000415 	stw	r20,16(sp)
   2298c:	dcc00315 	stw	r19,12(sp)
   22990:	dc400115 	stw	r17,4(sp)
    bApplEsmPending = TRUE;
   22994:	d0a159c5 	stb	r2,-31385(gp)
   22998:	24c003cc 	andi	r19,r4,15
{
   2299c:	dfc00815 	stw	ra,32(sp)
   229a0:	ddc00715 	stw	r23,28(sp)
   229a4:	dc800215 	stw	r18,8(sp)
   229a8:	dc000015 	stw	r16,0(sp)
   229ac:	2080040c 	andi	r2,r4,16

    /* reset the Error Flag in case of acknowledge by the Master */
    if ( alControl & STATE_CHANGE )
    {
        bErrAck = 1;
        nAlStatus &= ~STATE_CHANGE;
   229b0:	d46156c3 	ldbu	r17,-31397(gp)
{
   229b4:	2829883a 	mov	r20,r5
   229b8:	282d883a 	mov	r22,r5
   229bc:	982b883a 	mov	r21,r19
    if ( alControl & STATE_CHANGE )
   229c0:	10005126 	beq	r2,zero,22b08 <AL_ControlInd+0x198>
        nAlStatus &= ~STATE_CHANGE;
   229c4:	00bffbc4 	movi	r2,-17
   229c8:	1462703a 	and	r17,r2,r17
        bErrAck = 1;
   229cc:	05c00044 	movi	r23,1
        nAlStatus &= ~STATE_CHANGE;
   229d0:	d46156c5 	stb	r17,-31397(gp)

    /* generate a variable for the state transition
      (Bit 0-3: new state (AL Control), Bit 4-7: old state (AL Status) */
    alControl &= STATE_MASK;
    stateTrans = nAlStatus;
    stateTrans <<= 4;
   229d4:	8822913a 	slli	r17,r17,4
    stateTrans += alControl;
   229d8:	9c63883a 	add	r17,r19,r17

    /* check the SYNCM settings depending on the state transition */
    switch ( stateTrans )
   229dc:	8c803fcc 	andi	r18,r17,255
   229e0:	908010a0 	cmpeqi	r2,r18,66
   229e4:	1000951e 	bne	r2,zero,22c3c <AL_ControlInd+0x2cc>
   229e8:	908010e8 	cmpgeui	r2,r18,67
   229ec:	1000551e 	bne	r2,zero,22b44 <AL_ControlInd+0x1d4>
   229f0:	90800920 	cmpeqi	r2,r18,36
   229f4:	1000b01e 	bne	r2,zero,22cb8 <AL_ControlInd+0x348>
   229f8:	90800970 	cmpltui	r2,r18,37
   229fc:	1000491e 	bne	r2,zero,22b24 <AL_ControlInd+0x1b4>
    }

    if ( result == 0 )
    {
        /* execute the corresponding local management service(s) depending on the state transition */
        nEcatStateTrans = 0;
   22a00:	d021590d 	sth	zero,-31388(gp)
        switch ( stateTrans )
   22a04:	8c7ffbc4 	addi	r17,r17,-17
   22a08:	8c403fcc 	andi	r17,r17,255
   22a0c:	88800e28 	cmpgeui	r2,r17,56
   22a10:	10005b1e 	bne	r2,zero,22b80 <AL_ControlInd+0x210>
   22a14:	882290ba 	slli	r17,r17,2
   22a18:	008000b4 	movhi	r2,2
   22a1c:	8885883a 	add	r2,r17,r2
   22a20:	108a8a17 	ldw	r2,10792(r2)
   22a24:	1000683a 	jmp	r2
   22a28:	000230fc 	xorhi	zero,zero,2243
   22a2c:	00022f04 	movi	zero,2236
   22a30:	00022cf4 	movhi	zero,2227
   22a34:	00023230 	cmpltui	zero,zero,2248
   22a38:	00022b80 	call	22b8 <__reset-0x1dd48>
   22a3c:	00022b80 	call	22b8 <__reset-0x1dd48>
   22a40:	00022b80 	call	22b8 <__reset-0x1dd48>
   22a44:	00023230 	cmpltui	zero,zero,2248
   22a48:	00022b80 	call	22b8 <__reset-0x1dd48>
   22a4c:	00022b80 	call	22b8 <__reset-0x1dd48>
   22a50:	00022b80 	call	22b8 <__reset-0x1dd48>
   22a54:	00022b80 	call	22b8 <__reset-0x1dd48>
   22a58:	00022b80 	call	22b8 <__reset-0x1dd48>
   22a5c:	00022b80 	call	22b8 <__reset-0x1dd48>
   22a60:	00022b80 	call	22b8 <__reset-0x1dd48>
   22a64:	00022b80 	call	22b8 <__reset-0x1dd48>
   22a68:	000230d0 	cmplti	zero,zero,2243
   22a6c:	00023100 	call	2310 <__reset-0x1dcf0>
   22a70:	00023230 	cmpltui	zero,zero,2248
   22a74:	00022f74 	movhi	zero,2237
   22a78:	00022b80 	call	22b8 <__reset-0x1dd48>
   22a7c:	00022b80 	call	22b8 <__reset-0x1dd48>
   22a80:	00022b80 	call	22b8 <__reset-0x1dd48>
   22a84:	00023230 	cmpltui	zero,zero,2248
   22a88:	00022b80 	call	22b8 <__reset-0x1dd48>
   22a8c:	00022b80 	call	22b8 <__reset-0x1dd48>
   22a90:	00022b80 	call	22b8 <__reset-0x1dd48>
   22a94:	00022b80 	call	22b8 <__reset-0x1dd48>
   22a98:	00022b80 	call	22b8 <__reset-0x1dd48>
   22a9c:	00022b80 	call	22b8 <__reset-0x1dd48>
   22aa0:	00022b80 	call	22b8 <__reset-0x1dd48>
   22aa4:	00022b80 	call	22b8 <__reset-0x1dd48>
   22aa8:	00022eac 	andhi	zero,zero,2234
   22aac:	00023230 	cmpltui	zero,zero,2248
   22ab0:	00022b80 	call	22b8 <__reset-0x1dd48>
   22ab4:	00023230 	cmpltui	zero,zero,2248
   22ab8:	00022b80 	call	22b8 <__reset-0x1dd48>
   22abc:	00022b80 	call	22b8 <__reset-0x1dd48>
   22ac0:	00022b80 	call	22b8 <__reset-0x1dd48>
   22ac4:	00023230 	cmpltui	zero,zero,2248
   22ac8:	00022b80 	call	22b8 <__reset-0x1dd48>
   22acc:	00022b80 	call	22b8 <__reset-0x1dd48>
   22ad0:	00022b80 	call	22b8 <__reset-0x1dd48>
   22ad4:	00022b80 	call	22b8 <__reset-0x1dd48>
   22ad8:	00022b80 	call	22b8 <__reset-0x1dd48>
   22adc:	00022b80 	call	22b8 <__reset-0x1dd48>
   22ae0:	00022b80 	call	22b8 <__reset-0x1dd48>
   22ae4:	00022b80 	call	22b8 <__reset-0x1dd48>
   22ae8:	000230a0 	cmpeqi	zero,zero,2242
   22aec:	00022b80 	call	22b8 <__reset-0x1dd48>
   22af0:	00023230 	cmpltui	zero,zero,2248
   22af4:	00023100 	call	2310 <__reset-0x1dcf0>
   22af8:	00022b80 	call	22b8 <__reset-0x1dd48>
   22afc:	00022b80 	call	22b8 <__reset-0x1dd48>
   22b00:	00022b80 	call	22b8 <__reset-0x1dd48>
   22b04:	00022fec 	andhi	zero,zero,2239
   22b08:	102f883a 	mov	r23,r2
    else if ((nAlStatus & STATE_CHANGE)
   22b0c:	8880040c 	andi	r2,r17,16
   22b10:	10000226 	beq	r2,zero,22b1c <AL_ControlInd+0x1ac>
        && (alControl & STATE_MASK) != STATE_INIT)
   22b14:	98800058 	cmpnei	r2,r19,1
   22b18:	1000d91e 	bne	r2,zero,22e80 <AL_ControlInd+0x510>
        nAlStatus &= STATE_MASK;
   22b1c:	8c4003cc 	andi	r17,r17,15
   22b20:	003fab06 	br	229d0 <AL_ControlInd+0x60>
    switch ( stateTrans )
   22b24:	908004a0 	cmpeqi	r2,r18,18
   22b28:	10004d1e 	bne	r2,zero,22c60 <AL_ControlInd+0x2f0>
   22b2c:	908008a0 	cmpeqi	r2,r18,34
   22b30:	10004b1e 	bne	r2,zero,22c60 <AL_ControlInd+0x2f0>
        nEcatStateTrans = 0;
   22b34:	d021590d 	sth	zero,-31388(gp)
        switch ( stateTrans )
   22b38:	90800468 	cmpgeui	r2,r18,17
   22b3c:	10001026 	beq	r2,zero,22b80 <AL_ControlInd+0x210>
   22b40:	003fb006 	br	22a04 <AL_ControlInd+0x94>
    switch ( stateTrans )
   22b44:	908020a0 	cmpeqi	r2,r18,130
   22b48:	1000281e 	bne	r2,zero,22bec <AL_ControlInd+0x27c>
   22b4c:	908020e8 	cmpgeui	r2,r18,131
   22b50:	1000101e 	bne	r2,zero,22b94 <AL_ControlInd+0x224>
   22b54:	90801120 	cmpeqi	r2,r18,68
   22b58:	10005d1e 	bne	r2,zero,22cd0 <AL_ControlInd+0x360>
   22b5c:	90801220 	cmpeqi	r2,r18,72
   22b60:	10005b1e 	bne	r2,zero,22cd0 <AL_ControlInd+0x360>
        nEcatStateTrans = 0;
   22b64:	d021590d 	sth	zero,-31388(gp)
        switch ( stateTrans )
   22b68:	90801270 	cmpltui	r2,r18,73
   22b6c:	103fa51e 	bne	r2,zero,22a04 <AL_ControlInd+0x94>
   22b70:	8c401fc4 	addi	r17,r17,127
   22b74:	8c403fcc 	andi	r17,r17,255
   22b78:	8c400228 	cmpgeui	r17,r17,8
   22b7c:	88014226 	beq	r17,zero,23088 <AL_ControlInd+0x718>
                break;
        }
        EsmTimeoutCounter -= (INT16) (EsmTimeoutCounter / 10); //subtract 10% from the timeout to react before the master runs into a timeout.

    }
    else if ( alControl != (nAlStatus & STATE_MASK) )
   22b80:	d12156c3 	ldbu	r4,-31397(gp)
   22b84:	208003cc 	andi	r2,r4,15
   22b88:	98806426 	beq	r19,r2,22d1c <AL_ControlInd+0x3ac>
            result = ALSTATUSCODE_UNKNOWNALCONTROL;
   22b8c:	04000484 	movi	r16,18
   22b90:	00009606 	br	22dec <AL_ControlInd+0x47c>
    switch ( stateTrans )
   22b94:	90802120 	cmpeqi	r2,r18,132
   22b98:	10004d1e 	bne	r2,zero,22cd0 <AL_ControlInd+0x360>
   22b9c:	90802220 	cmpeqi	r2,r18,136
   22ba0:	10004b1e 	bne	r2,zero,22cd0 <AL_ControlInd+0x360>
        nEcatStateTrans = 0;
   22ba4:	d021590d 	sth	zero,-31388(gp)
        switch ( stateTrans )
   22ba8:	8c401fc4 	addi	r17,r17,127
   22bac:	8c403fcc 	andi	r17,r17,255
   22bb0:	88800228 	cmpgeui	r2,r17,8
   22bb4:	103ff21e 	bne	r2,zero,22b80 <AL_ControlInd+0x210>
   22bb8:	882290ba 	slli	r17,r17,2
   22bbc:	008000b4 	movhi	r2,2
   22bc0:	8885883a 	add	r2,r17,r2
   22bc4:	108af317 	ldw	r2,11212(r2)
   22bc8:	1000683a 	jmp	r2
   22bcc:	00023088 	cmpgei	zero,zero,2242
   22bd0:	00022c04 	movi	zero,2224
   22bd4:	00023230 	cmpltui	zero,zero,2248
   22bd8:	00023078 	rdprs	zero,zero,2241
   22bdc:	00022b80 	call	22b8 <__reset-0x1dd48>
   22be0:	00022b80 	call	22b8 <__reset-0x1dd48>
   22be4:	00022b80 	call	22b8 <__reset-0x1dd48>
   22be8:	00023100 	call	2310 <__reset-0x1dcf0>
        result = CheckSmSettings(MAILBOX_READ+1);
   22bec:	01000084 	movi	r4,2
   22bf0:	0021de00 	call	21de0 <CheckSmSettings>
   22bf4:	14003fcc 	andi	r16,r2,255
    if ( result == 0 )
   22bf8:	10803fcc 	andi	r2,r2,255
   22bfc:	10001d1e 	bne	r2,zero,22c74 <AL_ControlInd+0x304>
        nEcatStateTrans = 0;
   22c00:	d021590d 	sth	zero,-31388(gp)
            result = APPL_StopOutputHandler();
   22c04:	00200b00 	call	200b0 <APPL_StopOutputHandler>
   22c08:	1021883a 	mov	r16,r2
            StopOutputHandler();
   22c0c:	00228180 	call	22818 <StopOutputHandler>
            if (result != 0)
   22c10:	80bfffcc 	andi	r2,r16,65535
            bApplEsmPending = FALSE;
   22c14:	d02159c5 	stb	zero,-31385(gp)
            if (result != 0)
   22c18:	10000e26 	beq	r2,zero,22c54 <AL_ControlInd+0x2e4>
    if ( result == NOERROR_INWORK )
   22c1c:	10803fd8 	cmpnei	r2,r2,255
   22c20:	10006f1e 	bne	r2,zero,22de0 <AL_ControlInd+0x470>
        bEcatWaitForAlControlRes = TRUE;
   22c24:	00800044 	movi	r2,1
   22c28:	d0a15985 	stb	r2,-31386(gp)
        nEcatStateTrans = stateTrans;
   22c2c:	00802084 	movi	r2,130
   22c30:	d0a1590d 	sth	r2,-31388(gp)
                break;
   22c34:	04003204 	movi	r16,200
   22c38:	00008c06 	br	22e6c <AL_ControlInd+0x4fc>
        result = CheckSmSettings(MAILBOX_READ+1);
   22c3c:	01000084 	movi	r4,2
   22c40:	0021de00 	call	21de0 <CheckSmSettings>
   22c44:	14003fcc 	andi	r16,r2,255
    if ( result == 0 )
   22c48:	10803fcc 	andi	r2,r2,255
   22c4c:	1000091e 	bne	r2,zero,22c74 <AL_ControlInd+0x304>
        nEcatStateTrans = 0;
   22c50:	d021590d 	sth	zero,-31388(gp)
            APPL_StopInputHandler();
   22c54:	00200a00 	call	200a0 <APPL_StopInputHandler>
            StopInputHandler();
   22c58:	00228240 	call	22824 <StopInputHandler>
   22c5c:	00010806 	br	23080 <AL_ControlInd+0x710>
        result = CheckSmSettings(MAILBOX_READ+1);
   22c60:	01000084 	movi	r4,2
   22c64:	0021de00 	call	21de0 <CheckSmSettings>
   22c68:	14003fcc 	andi	r16,r2,255
    if ( result == 0 )
   22c6c:	10803fcc 	andi	r2,r2,255
   22c70:	103fb026 	beq	r2,zero,22b34 <AL_ControlInd+0x1c4>
        switch (nAlStatus)
   22c74:	d12156c3 	ldbu	r4,-31397(gp)
   22c78:	85ffffcc 	andi	r23,r16,65535
   22c7c:	20803fcc 	andi	r2,r4,255
   22c80:	10c00120 	cmpeqi	r3,r2,4
   22c84:	1801351e 	bne	r3,zero,2315c <AL_ControlInd+0x7ec>
   22c88:	10c00220 	cmpeqi	r3,r2,8
   22c8c:	1801311e 	bne	r3,zero,23154 <AL_ControlInd+0x7e4>
   22c90:	10c000a0 	cmpeqi	r3,r2,2
   22c94:	1801331e 	bne	r3,zero,23164 <AL_ControlInd+0x7f4>
    if ( result == NOERROR_INWORK )
   22c98:	bdc03fe0 	cmpeqi	r23,r23,255
   22c9c:	b801561e 	bne	r23,zero,231f8 <AL_ControlInd+0x888>
    else if ( alControl != (nAlStatus & STATE_MASK) )
   22ca0:	20c003cc 	andi	r3,r4,15
   22ca4:	98c0511e 	bne	r19,r3,22dec <AL_ControlInd+0x47c>
   22ca8:	1009883a 	mov	r4,r2
    }
    else
    {
        /* Error acknowledgement without a state transition */

         bEcatWaitForAlControlRes = FALSE;
   22cac:	d0215985 	stb	zero,-31386(gp)

        /* AL-Status has to be updated and AL-Status-Code has to be reset
           if the the error bit was acknowledged */
        SetALStatus(nAlStatus, 0);
   22cb0:	000b883a 	mov	r5,zero
   22cb4:	00003606 	br	22d90 <AL_ControlInd+0x420>
        result = APPL_GenerateMapping(&nPdInputSize,&nPdOutputSize);
   22cb8:	d1615804 	addi	r5,gp,-31392
   22cbc:	d1215884 	addi	r4,gp,-31390
   22cc0:	00200b80 	call	200b8 <APPL_GenerateMapping>
   22cc4:	1021883a 	mov	r16,r2
            if (result != 0)
   22cc8:	10bfffcc 	andi	r2,r2,65535
   22ccc:	103fe91e 	bne	r2,zero,22c74 <AL_ControlInd+0x304>
        result = CheckSmSettings(nMaxSyncMan);
   22cd0:	d1215783 	ldbu	r4,-31394(gp)
   22cd4:	0021de00 	call	21de0 <CheckSmSettings>
   22cd8:	14003fcc 	andi	r16,r2,255
    if ( result == 0 )
   22cdc:	10803fcc 	andi	r2,r2,255
   22ce0:	103fe41e 	bne	r2,zero,22c74 <AL_ControlInd+0x304>
        nEcatStateTrans = 0;
   22ce4:	d021590d 	sth	zero,-31388(gp)
        switch ( stateTrans )
   22ce8:	90801268 	cmpgeui	r2,r18,73
   22cec:	103f9226 	beq	r2,zero,22b38 <AL_ControlInd+0x1c8>
   22cf0:	003fad06 	br	22ba8 <AL_ControlInd+0x238>
            bBootMode = TRUE;
   22cf4:	04400044 	movi	r17,1
            if ( CheckSmSettings(MAILBOX_READ+1) != 0 )
   22cf8:	01000084 	movi	r4,2
            bBootMode = TRUE;
   22cfc:	d46163c5 	stb	r17,-31345(gp)
            if ( CheckSmSettings(MAILBOX_READ+1) != 0 )
   22d00:	0021de00 	call	21de0 <CheckSmSettings>
   22d04:	10803fcc 	andi	r2,r2,255
   22d08:	10000626 	beq	r2,zero,22d24 <AL_ControlInd+0x3b4>
    else if ( alControl != (nAlStatus & STATE_MASK) )
   22d0c:	d12156c3 	ldbu	r4,-31397(gp)
                bBootMode = FALSE;
   22d10:	d02163c5 	stb	zero,-31345(gp)
    else if ( alControl != (nAlStatus & STATE_MASK) )
   22d14:	208003cc 	andi	r2,r4,15
   22d18:	98814a1e 	bne	r19,r2,23244 <AL_ControlInd+0x8d4>
   22d1c:	21003fcc 	andi	r4,r4,255
   22d20:	003fe206 	br	22cac <AL_ControlInd+0x33c>
            ResetALEventMask(0);
   22d24:	0009883a 	mov	r4,zero
   22d28:	0021c240 	call	21c24 <ResetALEventMask>
            result = MBX_StartMailboxHandler();
   22d2c:	0023dc00 	call	23dc0 <MBX_StartMailboxHandler>
   22d30:	1021883a 	mov	r16,r2
            if (result == 0)
   22d34:	10bfffcc 	andi	r2,r2,65535
   22d38:	1000201e 	bne	r2,zero,22dbc <AL_ControlInd+0x44c>
                bApplEsmPending = FALSE;
   22d3c:	d02159c5 	stb	zero,-31385(gp)
                result = APPL_StartMailboxHandler();
   22d40:	00200880 	call	20088 <APPL_StartMailboxHandler>
   22d44:	1021883a 	mov	r16,r2
                if ( result == 0 )
   22d48:	10bfffcc 	andi	r2,r2,65535
   22d4c:	10001b1e 	bne	r2,zero,22dbc <AL_ControlInd+0x44c>
            BL_Start( STATE_BOOT );
   22d50:	010000c4 	movi	r4,3
                    bMbxRunning = TRUE;
   22d54:	d4616c45 	stb	r17,-31311(gp)
            BL_Start( STATE_BOOT );
   22d58:	00207480 	call	20748 <BL_Start>
    else if ( alControl != (nAlStatus & STATE_MASK) )
   22d5c:	d12156c3 	ldbu	r4,-31397(gp)
   22d60:	208003cc 	andi	r2,r4,15
   22d64:	98bfed26 	beq	r19,r2,22d1c <AL_ControlInd+0x3ac>
        if ( (result != 0 || alStatusCode != 0) && ((alControl | nAlStatus) & STATE_OP) )
   22d68:	a0bfffcc 	andi	r2,r20,65535
   22d6c:	10014326 	beq	r2,zero,2327c <AL_ControlInd+0x90c>
   22d70:	9908b03a 	or	r4,r19,r4
   22d74:	2100020c 	andi	r4,r4,8
   22d78:	2001381e 	bne	r4,zero,2325c <AL_ControlInd+0x8ec>
                alControl |= STATE_CHANGE;
   22d7c:	9d400414 	ori	r21,r19,16
            nAlStatus |= STATE_CHANGE;
   22d80:	d56156c5 	stb	r21,-31397(gp)
        bEcatWaitForAlControlRes = FALSE;
   22d84:	d0215985 	stb	zero,-31386(gp)
        SetALStatus(nAlStatus, result);
   22d88:	b17fffcc 	andi	r5,r22,65535
   22d8c:	a9003fcc 	andi	r4,r21,255
    }
    /*ECATCHANGE_START(V5.13) CIA402 4*/
    /*decouple CIA402 state machine from ESM*/
    /*ECATCHANGE_END(V5.13) CIA402 4*/

}
   22d90:	dfc00817 	ldw	ra,32(sp)
   22d94:	ddc00717 	ldw	r23,28(sp)
   22d98:	dd800617 	ldw	r22,24(sp)
   22d9c:	dd400517 	ldw	r21,20(sp)
   22da0:	dd000417 	ldw	r20,16(sp)
   22da4:	dcc00317 	ldw	r19,12(sp)
   22da8:	dc800217 	ldw	r18,8(sp)
   22dac:	dc400117 	ldw	r17,4(sp)
   22db0:	dc000017 	ldw	r16,0(sp)
   22db4:	dec00904 	addi	sp,sp,36
        SetALStatus(nAlStatus, 0);
   22db8:	00228cc1 	jmpi	228cc <SetALStatus>
            if(result != 0 && result != NOERROR_INWORK)
   22dbc:	80bfffcc 	andi	r2,r16,65535
   22dc0:	10803fe0 	cmpeqi	r2,r2,255
   22dc4:	1000211e 	bne	r2,zero,22e4c <AL_ControlInd+0x4dc>
                    if (!bApplEsmPending)
   22dc8:	d0a159c3 	ldbu	r2,-31385(gp)
   22dcc:	10001d26 	beq	r2,zero,22e44 <AL_ControlInd+0x4d4>
                 MBX_StopMailboxHandler();
   22dd0:	0023e9c0 	call	23e9c <MBX_StopMailboxHandler>
            BL_Start( STATE_BOOT );
   22dd4:	010000c4 	movi	r4,3
   22dd8:	00207480 	call	20748 <BL_Start>
                bBootMode = FALSE;
   22ddc:	d02163c5 	stb	zero,-31345(gp)
    else if ( alControl != (nAlStatus & STATE_MASK) )
   22de0:	d12156c3 	ldbu	r4,-31397(gp)
   22de4:	208003cc 	andi	r2,r4,15
   22de8:	98bfcc26 	beq	r19,r2,22d1c <AL_ControlInd+0x3ac>
        if ( (result != 0 || alStatusCode != 0) && ((alControl | nAlStatus) & STATE_OP) )
   22dec:	9908b03a 	or	r4,r19,r4
   22df0:	2100020c 	andi	r4,r4,8
   22df4:	20000a26 	beq	r4,zero,22e20 <AL_ControlInd+0x4b0>
            if(bEcatOutputUpdateRunning)
   22df8:	d0a16383 	ldbu	r2,-31346(gp)
   22dfc:	10000226 	beq	r2,zero,22e08 <AL_ControlInd+0x498>
                APPL_StopOutputHandler();
   22e00:	00200b00 	call	200b0 <APPL_StopOutputHandler>
                StopOutputHandler();
   22e04:	00228180 	call	22818 <StopOutputHandler>
            if(nPdOutputSize > 0)
   22e08:	d0a1580b 	ldhu	r2,-31392(gp)
   22e0c:	10011526 	beq	r2,zero,23264 <AL_ControlInd+0x8f4>
                DisableSyncManChannel(PROCESS_DATA_OUT);
   22e10:	01000084 	movi	r4,2
                DisableSyncManChannel(PROCESS_DATA_IN);
   22e14:	0021d240 	call	21d24 <DisableSyncManChannel>
        if ( result != 0 )
   22e18:	80bfffcc 	andi	r2,r16,65535
   22e1c:	10011526 	beq	r2,zero,23274 <AL_ControlInd+0x904>
                if (nAlStatus == STATE_OP)
   22e20:	d0a156c3 	ldbu	r2,-31397(gp)
   22e24:	10800218 	cmpnei	r2,r2,8
   22e28:	1000021e 	bne	r2,zero,22e34 <AL_ControlInd+0x4c4>
                    nAlStatus = STATE_SAFEOP;
   22e2c:	00800104 	movi	r2,4
   22e30:	d0a156c5 	stb	r2,-31397(gp)
            nAlStatus |= STATE_CHANGE;
   22e34:	d56156c3 	ldbu	r21,-31397(gp)
   22e38:	802d883a 	mov	r22,r16
   22e3c:	ad400414 	ori	r21,r21,16
   22e40:	003fcf06 	br	22d80 <AL_ControlInd+0x410>
                        APPL_StopMailboxHandler();
   22e44:	00200900 	call	20090 <APPL_StopMailboxHandler>
   22e48:	003fe106 	br	22dd0 <AL_ControlInd+0x460>
            BL_Start( STATE_BOOT );
   22e4c:	010000c4 	movi	r4,3
   22e50:	00207480 	call	20748 <BL_Start>
        bEcatWaitForAlControlRes = TRUE;
   22e54:	00800044 	movi	r2,1
   22e58:	d0a15985 	stb	r2,-31386(gp)
                bBootMode = FALSE;
   22e5c:	d02163c5 	stb	zero,-31345(gp)
        nEcatStateTrans = stateTrans;
   22e60:	008004c4 	movi	r2,19
   22e64:	d0a1590d 	sth	r2,-31388(gp)
            break;
   22e68:	0401f404 	movi	r16,2000
        EsmTimeoutCounter -= (INT16) (EsmTimeoutCounter / 10); //subtract 10% from the timeout to react before the master runs into a timeout.
   22e6c:	813fffcc 	andi	r4,r16,65535
   22e70:	01400284 	movi	r5,10
   22e74:	0026f640 	call	26f64 <__udivsi3>
   22e78:	80a1c83a 	sub	r16,r16,r2
   22e7c:	d421620d 	sth	r16,-31352(gp)
}
   22e80:	dfc00817 	ldw	ra,32(sp)
   22e84:	ddc00717 	ldw	r23,28(sp)
   22e88:	dd800617 	ldw	r22,24(sp)
   22e8c:	dd400517 	ldw	r21,20(sp)
   22e90:	dd000417 	ldw	r20,16(sp)
   22e94:	dcc00317 	ldw	r19,12(sp)
   22e98:	dc800217 	ldw	r18,8(sp)
   22e9c:	dc400117 	ldw	r17,4(sp)
   22ea0:	dc000017 	ldw	r16,0(sp)
   22ea4:	dec00904 	addi	sp,sp,36
   22ea8:	f800283a 	ret
            if(bBootMode)
   22eac:	d0a163c3 	ldbu	r2,-31345(gp)
   22eb0:	1000031e 	bne	r2,zero,22ec0 <AL_ControlInd+0x550>
            BL_Stop();
   22eb4:	002074c0 	call	2074c <BL_Stop>
    bSyncSetByUser = FALSE;
   22eb8:	d0216d85 	stb	zero,-31306(gp)
    else if ( alControl != (nAlStatus & STATE_MASK) )
   22ebc:	003fa706 	br	22d5c <AL_ControlInd+0x3ec>
                ResetALEventMask(0);
   22ec0:	0009883a 	mov	r4,zero
                bBootMode = FALSE;
   22ec4:	d02163c5 	stb	zero,-31345(gp)
                ResetALEventMask(0);
   22ec8:	0021c240 	call	21c24 <ResetALEventMask>
                MBX_StopMailboxHandler();
   22ecc:	0023e9c0 	call	23e9c <MBX_StopMailboxHandler>
                result = APPL_StopMailboxHandler();
   22ed0:	00200900 	call	20090 <APPL_StopMailboxHandler>
   22ed4:	1021883a 	mov	r16,r2
            BL_Stop();
   22ed8:	002074c0 	call	2074c <BL_Stop>
    if ( result == NOERROR_INWORK )
   22edc:	80bfffcc 	andi	r2,r16,65535
    bSyncSetByUser = FALSE;
   22ee0:	d0216d85 	stb	zero,-31306(gp)
    if ( result == NOERROR_INWORK )
   22ee4:	10803fe0 	cmpeqi	r2,r2,255
   22ee8:	1000bf1e 	bne	r2,zero,231e8 <AL_ControlInd+0x878>
    else if ( alControl != (nAlStatus & STATE_MASK) )
   22eec:	d12156c3 	ldbu	r4,-31397(gp)
   22ef0:	208003cc 	andi	r2,r4,15
   22ef4:	98bf8926 	beq	r19,r2,22d1c <AL_ControlInd+0x3ac>
        if ( (result != 0 || alStatusCode != 0) && ((alControl | nAlStatus) & STATE_OP) )
   22ef8:	80bfffcc 	andi	r2,r16,65535
   22efc:	103f9a26 	beq	r2,zero,22d68 <AL_ControlInd+0x3f8>
   22f00:	003fba06 	br	22dec <AL_ControlInd+0x47c>
           UpdateEEPROMLoadedState();
   22f04:	0021cbc0 	call	21cbc <UpdateEEPROMLoadedState>
            if (EepromLoaded == FALSE)
   22f08:	d0a15103 	ldbu	r2,-31420(gp)
   22f0c:	1000ab26 	beq	r2,zero,231bc <AL_ControlInd+0x84c>
            result = MBX_StartMailboxHandler();
   22f10:	0023dc00 	call	23dc0 <MBX_StartMailboxHandler>
   22f14:	1021883a 	mov	r16,r2
            if (result == 0)
   22f18:	10bfffcc 	andi	r2,r2,65535
   22f1c:	1000081e 	bne	r2,zero,22f40 <AL_ControlInd+0x5d0>
                bApplEsmPending = FALSE;
   22f20:	d02159c5 	stb	zero,-31385(gp)
                result = APPL_StartMailboxHandler();
   22f24:	00200880 	call	20088 <APPL_StartMailboxHandler>
   22f28:	1021883a 	mov	r16,r2
                if ( result == 0 )
   22f2c:	10bfffcc 	andi	r2,r2,65535
   22f30:	1000031e 	bne	r2,zero,22f40 <AL_ControlInd+0x5d0>
                    bMbxRunning = TRUE;
   22f34:	00800044 	movi	r2,1
   22f38:	d0a16c45 	stb	r2,-31311(gp)
    else if ( alControl != (nAlStatus & STATE_MASK) )
   22f3c:	003f8706 	br	22d5c <AL_ControlInd+0x3ec>
            if(result != 0 && result != NOERROR_INWORK)
   22f40:	80bfffcc 	andi	r2,r16,65535
   22f44:	10803fd8 	cmpnei	r2,r2,255
   22f48:	1000041e 	bne	r2,zero,22f5c <AL_ControlInd+0x5ec>
        bEcatWaitForAlControlRes = TRUE;
   22f4c:	00800044 	movi	r2,1
   22f50:	d0a15985 	stb	r2,-31386(gp)
        nEcatStateTrans = stateTrans;
   22f54:	00800484 	movi	r2,18
   22f58:	003fc206 	br	22e64 <AL_ControlInd+0x4f4>
                    if (!bApplEsmPending)
   22f5c:	d0a159c3 	ldbu	r2,-31385(gp)
   22f60:	10000226 	beq	r2,zero,22f6c <AL_ControlInd+0x5fc>
                 MBX_StopMailboxHandler();
   22f64:	0023e9c0 	call	23e9c <MBX_StopMailboxHandler>
   22f68:	003f9d06 	br	22de0 <AL_ControlInd+0x470>
                        APPL_StopMailboxHandler();
   22f6c:	00200900 	call	20090 <APPL_StopMailboxHandler>
   22f70:	003ffc06 	br	22f64 <AL_ControlInd+0x5f4>
            result = StartInputHandler();
   22f74:	00220500 	call	22050 <StartInputHandler>
   22f78:	1021883a 	mov	r16,r2
            if ( result == 0 )
   22f7c:	10bfffcc 	andi	r2,r2,65535
   22f80:	10000b1e 	bne	r2,zero,22fb0 <AL_ControlInd+0x640>
                result = APPL_StartInputHandler(&u16ALEventMask);
   22f84:	d1215484 	addi	r4,gp,-31406
                bApplEsmPending = FALSE;
   22f88:	d02159c5 	stb	zero,-31385(gp)
                result = APPL_StartInputHandler(&u16ALEventMask);
   22f8c:	00200980 	call	20098 <APPL_StartInputHandler>
   22f90:	1021883a 	mov	r16,r2
                if(result == 0)
   22f94:	10bfffcc 	andi	r2,r2,65535
   22f98:	1000051e 	bne	r2,zero,22fb0 <AL_ControlInd+0x640>
                    SetALEventMask( u16ALEventMask );
   22f9c:	d121548b 	ldhu	r4,-31406(gp)
   22fa0:	0021c700 	call	21c70 <SetALEventMask>
                    bEcatInputUpdateRunning = TRUE;
   22fa4:	00800044 	movi	r2,1
   22fa8:	d0a16345 	stb	r2,-31347(gp)
    else if ( alControl != (nAlStatus & STATE_MASK) )
   22fac:	003f6b06 	br	22d5c <AL_ControlInd+0x3ec>
            if(result != 0 && result != NOERROR_INWORK)
   22fb0:	80bfffcc 	andi	r2,r16,65535
   22fb4:	10803fd8 	cmpnei	r2,r2,255
   22fb8:	1000061e 	bne	r2,zero,22fd4 <AL_ControlInd+0x664>
        bEcatWaitForAlControlRes = TRUE;
   22fbc:	00800044 	movi	r2,1
   22fc0:	d0a15985 	stb	r2,-31386(gp)
        nEcatStateTrans = stateTrans;
   22fc4:	00800904 	movi	r2,36
   22fc8:	d0a1590d 	sth	r2,-31388(gp)
                break;
   22fcc:	0408ca04 	movi	r16,9000
   22fd0:	003fa606 	br	22e6c <AL_ControlInd+0x4fc>
                if(!bApplEsmPending)
   22fd4:	d0a159c3 	ldbu	r2,-31385(gp)
   22fd8:	10000226 	beq	r2,zero,22fe4 <AL_ControlInd+0x674>
                StopInputHandler();
   22fdc:	00228240 	call	22824 <StopInputHandler>
    else if ( alControl != (nAlStatus & STATE_MASK) )
   22fe0:	003f7f06 	br	22de0 <AL_ControlInd+0x470>
                    APPL_StopInputHandler();
   22fe4:	00200a00 	call	200a0 <APPL_StopInputHandler>
   22fe8:	003ffc06 	br	22fdc <AL_ControlInd+0x66c>
            if (bErrAck)
   22fec:	bdc03fcc 	andi	r23,r23,255
   22ff0:	b8000426 	beq	r23,zero,23004 <AL_ControlInd+0x694>
                if (nPdOutputSize > 0)
   22ff4:	d0a1580b 	ldhu	r2,-31392(gp)
   22ff8:	10000e26 	beq	r2,zero,23034 <AL_ControlInd+0x6c4>
                    EnableSyncManChannel(PROCESS_DATA_OUT);
   22ffc:	01000084 	movi	r4,2
                        EnableSyncManChannel(PROCESS_DATA_IN);
   23000:	0021d840 	call	21d84 <EnableSyncManChannel>
            result = StartOutputHandler();
   23004:	00227bc0 	call	227bc <StartOutputHandler>
   23008:	1021883a 	mov	r16,r2
            if(result == 0)
   2300c:	10bfffcc 	andi	r2,r2,65535
   23010:	10000c1e 	bne	r2,zero,23044 <AL_ControlInd+0x6d4>
                bApplEsmPending = FALSE;
   23014:	d02159c5 	stb	zero,-31385(gp)
                result = APPL_StartOutputHandler();
   23018:	00200a80 	call	200a8 <APPL_StartOutputHandler>
   2301c:	1021883a 	mov	r16,r2
                if(result == 0)
   23020:	10bfffcc 	andi	r2,r2,65535
   23024:	1000071e 	bne	r2,zero,23044 <AL_ControlInd+0x6d4>
                    bEcatOutputUpdateRunning = TRUE;
   23028:	00800044 	movi	r2,1
   2302c:	d0a16385 	stb	r2,-31346(gp)
    else if ( alControl != (nAlStatus & STATE_MASK) )
   23030:	003f4a06 	br	22d5c <AL_ControlInd+0x3ec>
                    if (nPdInputSize > 0)
   23034:	d0a1588b 	ldhu	r2,-31390(gp)
   23038:	103ff226 	beq	r2,zero,23004 <AL_ControlInd+0x694>
                        EnableSyncManChannel(PROCESS_DATA_IN);
   2303c:	010000c4 	movi	r4,3
   23040:	003fef06 	br	23000 <AL_ControlInd+0x690>
            if ( result != 0 && result != NOERROR_INWORK)
   23044:	80bfffcc 	andi	r2,r16,65535
   23048:	10803fd8 	cmpnei	r2,r2,255
   2304c:	1000041e 	bne	r2,zero,23060 <AL_ControlInd+0x6f0>
        bEcatWaitForAlControlRes = TRUE;
   23050:	00800044 	movi	r2,1
   23054:	d0a15985 	stb	r2,-31386(gp)
        nEcatStateTrans = stateTrans;
   23058:	00801204 	movi	r2,72
   2305c:	003fda06 	br	22fc8 <AL_ControlInd+0x658>
                    if (!bApplEsmPending)
   23060:	d0a159c3 	ldbu	r2,-31385(gp)
   23064:	10000226 	beq	r2,zero,23070 <AL_ControlInd+0x700>
                StopOutputHandler();
   23068:	00228180 	call	22818 <StopOutputHandler>
    if ( result == NOERROR_INWORK )
   2306c:	003f5c06 	br	22de0 <AL_ControlInd+0x470>
                        APPL_StopOutputHandler();
   23070:	00200b00 	call	200b0 <APPL_StopOutputHandler>
   23074:	003ffc06 	br	23068 <AL_ControlInd+0x6f8>
            APPL_StopOutputHandler();
   23078:	00200b00 	call	200b0 <APPL_StopOutputHandler>
            StopOutputHandler();
   2307c:	00228180 	call	22818 <StopOutputHandler>
            bApplEsmPending = FALSE;
   23080:	d02159c5 	stb	zero,-31385(gp)
   23084:	003f3506 	br	22d5c <AL_ControlInd+0x3ec>
            result = APPL_StopOutputHandler();
   23088:	00200b00 	call	200b0 <APPL_StopOutputHandler>
   2308c:	1021883a 	mov	r16,r2
            StopOutputHandler();
   23090:	00228180 	call	22818 <StopOutputHandler>
            if (result != 0)
   23094:	80bfffcc 	andi	r2,r16,65535
            bApplEsmPending = FALSE;
   23098:	d02159c5 	stb	zero,-31385(gp)
            if (result != 0)
   2309c:	10004c1e 	bne	r2,zero,231d0 <AL_ControlInd+0x860>
            result = APPL_StopInputHandler();
   230a0:	00200a00 	call	200a0 <APPL_StopInputHandler>
   230a4:	1021883a 	mov	r16,r2
            StopInputHandler();
   230a8:	00228240 	call	22824 <StopInputHandler>
            if (result != 0)
   230ac:	80bfffcc 	andi	r2,r16,65535
            bApplEsmPending = FALSE;
   230b0:	d02159c5 	stb	zero,-31385(gp)
            if (result != 0)
   230b4:	10000626 	beq	r2,zero,230d0 <AL_ControlInd+0x760>
    if ( result == NOERROR_INWORK )
   230b8:	10803fd8 	cmpnei	r2,r2,255
   230bc:	103f481e 	bne	r2,zero,22de0 <AL_ControlInd+0x470>
        bEcatWaitForAlControlRes = TRUE;
   230c0:	00800044 	movi	r2,1
   230c4:	d0a15985 	stb	r2,-31386(gp)
        nEcatStateTrans = stateTrans;
   230c8:	00801044 	movi	r2,65
   230cc:	003ed806 	br	22c30 <AL_ControlInd+0x2c0>
            MBX_StopMailboxHandler();
   230d0:	0023e9c0 	call	23e9c <MBX_StopMailboxHandler>
            result = APPL_StopMailboxHandler();
   230d4:	00200900 	call	20090 <APPL_StopMailboxHandler>
   230d8:	1021883a 	mov	r16,r2
    if ( result == NOERROR_INWORK )
   230dc:	10bfffcc 	andi	r2,r2,65535
    bSyncSetByUser = FALSE;
   230e0:	d0216d85 	stb	zero,-31306(gp)
    if ( result == NOERROR_INWORK )
   230e4:	10803fe0 	cmpeqi	r2,r2,255
   230e8:	103f8026 	beq	r2,zero,22eec <AL_ControlInd+0x57c>
        bEcatWaitForAlControlRes = TRUE;
   230ec:	00800044 	movi	r2,1
   230f0:	d0a15985 	stb	r2,-31386(gp)
        nEcatStateTrans = stateTrans;
   230f4:	00800844 	movi	r2,33
   230f8:	003ecd06 	br	22c30 <AL_ControlInd+0x2c0>
    bSyncSetByUser = FALSE;
   230fc:	d0216d85 	stb	zero,-31306(gp)
            if(bErrAck)
   23100:	bdc03fcc 	andi	r23,r23,255
   23104:	b8000226 	beq	r23,zero,23110 <AL_ControlInd+0x7a0>
                APPL_AckErrorInd(stateTrans);
   23108:	9009883a 	mov	r4,r18
   2310c:	00200840 	call	20084 <APPL_AckErrorInd>
                if ( nAlStatus & (STATE_SAFEOP | STATE_OP))
   23110:	d12156c3 	ldbu	r4,-31397(gp)
   23114:	9c003fcc 	andi	r16,r19,255
   23118:	2080030c 	andi	r2,r4,12
   2311c:	10000526 	beq	r2,zero,23134 <AL_ControlInd+0x7c4>
                    if(nPdOutputSize > 0)
   23120:	d0a1580b 	ldhu	r2,-31392(gp)
   23124:	10000726 	beq	r2,zero,23144 <AL_ControlInd+0x7d4>
                        EnableSyncManChannel(PROCESS_DATA_OUT);
   23128:	01000084 	movi	r4,2
                        EnableSyncManChannel(PROCESS_DATA_IN);
   2312c:	0021d840 	call	21d84 <EnableSyncManChannel>
    else if ( alControl != (nAlStatus & STATE_MASK) )
   23130:	d12156c3 	ldbu	r4,-31397(gp)
   23134:	208003cc 	andi	r2,r4,15
   23138:	80bef826 	beq	r16,r2,22d1c <AL_ControlInd+0x3ac>
            result = NOERROR_NOSTATECHANGE;
   2313c:	04003f84 	movi	r16,254
   23140:	003f2a06 	br	22dec <AL_ControlInd+0x47c>
                    if(nPdInputSize > 0)
